;
; File generated by cc65 v 2.19 - Git 96e8e89
;
	.fopt		compiler,"cc65 v 2.19 - Git 96e8e89"
	.setcpu		"6502"
	.smart		on
	.autoimport	on
	.case		on
	.debuginfo	on
	.importzp	sp, sreg, regsave, regbank
	.importzp	tmp1, tmp2, tmp3, tmp4, ptr1, ptr2, ptr3, ptr4
	.macpack	longbranch
	.dbg		file, "theLegend.c", 21292, 1748646784
	.dbg		file, "libs/neslib.h", 8998, 1746954991
	.dbg		file, "libs/nesdoug.h", 6588, 1746973112
	.dbg		file, "vrc6/vrc6_code.h", 3091, 1748512653
	.dbg		file, "music/famistudio_cc65.h", 4877, 1728982052
	.dbg		file, "graphics/AllOk.h", 2000, 1746907457
	.dbg		file, "graphics/AllWrong.h", 5289, 1748527790
	.dbg		file, "graphics/Disaster.h", 5289, 1746907446
	.dbg		file, "graphics/Desert.h", 1484, 1746907450
	.dbg		file, "graphics/LightInDesert.h", 5294, 1747044321
	.dbg		file, "graphics/The3Heroes.h", 5575, 1747049602
	.dbg		file, "graphics/SealAngelHeaven.h", 1575, 1746907433
	.dbg		file, "graphics/Clear.h", 464, 1746917832
	.dbg		file, "graphics/NameTableLoader.h", 297, 1746958024
	.dbg		file, "graphics/Castle.h", 10535, 1748389532
	.dbg		file, "graphics/EndCastleA.h", 5291, 1748449659
	.dbg		file, "graphics/EndCastleB.h", 5292, 1748455538
	.dbg		file, "graphics/DeltaruneLogo.h", 1275, 1748558875
	.forceimport	__STARTUP__
	.import		_pal_bg
	.import		_pal_bright
	.import		_ppu_wait_nmi
	.import		_ppu_off
	.import		_ppu_on_all
	.import		_pad_poll
	.import		_bank_spr
	.import		_set_vram_update
	.import		_vram_adr
	.import		_vram_put
	.import		_vram_fill
	.import		_vram_write
	.import		_vram_unrle
	.import		_memcpy
	.import		_delay
	.import		_pal_fade_to
	.import		_set_scroll_x
	.import		_set_scroll_y
	.import		_add_scroll_y
	.export		_bankLevel
	.export		_bankBuffer
	.import		_set_chr_mode_0
	.import		_set_chr_mode_1
	.import		_set_chr_mode_2
	.import		_set_chr_mode_3
	.import		_disable_irq
	.import		_set_irq_ptr
	.import		_is_irq_done
	.import		_famistudio_init_wrapper
	.import		_famistudio_music_play_wrapper
	.export		_allOk
	.export		_allWrong
	.export		_disaster
	.export		_desert
	.export		_lightInDesert
	.export		_the3Heroes
	.export		_the3Heroes_attr
	.export		_sealAngelHeaven
	.export		_clear
	.export		_nameTableLoader
	.export		_castle
	.export		_endCastleA
	.export		_endCastleB
	.export		_deltaruneLogo
	.export		_i
	.export		_j
	.export		_k
	.export		_l
	.export		_fi
	.export		_fj
	.export		_fk
	.export		_scx
	.export		_pad
	.export		_castle_scanline
	.export		_castle_scene_complete
	.export		_i16
	.export		_fi16
	.export		_fj16
	.export		_scy
	.export		_new_pos
	.export		_black
	.export		_delay_time
	.export		_palette
	.export		_mensaje1
	.export		_mensaje2
	.export		_mensaje3
	.export		_mensaje4
	.export		_mensaje5
	.export		_mensaje6
	.export		_mensaje7
	.export		_mensaje8
	.export		_mensaje9
	.export		_mensaje10
	.export		_mensaje11
	.export		_mensaje12
	.export		_mensaje13
	.export		_mensaje14
	.export		_mensaje15
	.export		_mensaje16
	.export		_mensaje17
	.export		_castle_triggers
	.export		_castle_messages_are_double
	.export		_castle_messages_coordinates
	.export		_castle_messages
	.export		_castle_last_message
	.export		_end_castle_triggers
	.export		_end_castle_messages_coordinates
	.export		_end_castle_messages_inscroll
	.export		_end_castle_message_fragment
	.export		_end_castle_message_1
	.export		_end_castle_message_2
	.export		_std_print_sender
	.export		_double_print_sender
	.export		_irq_buffer
	.export		_irq_buffer_castle_1
	.export		_irq_buffer_castle_2
	.export		_irq_buffer_castle_3
	.export		_irq_buffer_end_castle
	.export		_line_vram_sender
	.export		_custom_fade_in
	.export		_load_nametable_a_during_vblank
	.export		_fade_in
	.export		_fade_out
	.export		_fade_out_white
	.export		_fade_in_white
	.export		_send_line_after_vscroll_a
	.export		_map_to
	.export		_fix_text_color
	.export		_print
	.export		_print_a
	.export		_clear_4_lines
	.export		_clear_4_lines_a
	.export		_change_std_scanline
	.export		_main

.segment	"DATA"

_clear:
	.byte	$62
	.byte	$00
	.byte	$40
	.byte	$FF
	.byte	$FF
	.byte	$FF
	.byte	$FF
	.byte	$FF
	.byte	$FF
	.byte	$FF
	.byte	$FF
	.byte	$FF
	.byte	$FF
	.byte	$FF
	.byte	$FF
	.byte	$FF
	.byte	$FF
	.byte	$FF
	.byte	$FF
	.byte	$FF
	.byte	$FF
	.byte	$FF
	.byte	$FF
	.byte	$FF
	.byte	$FF
	.byte	$FF
	.byte	$FF
	.byte	$FF
	.byte	$FF
	.byte	$FF
	.byte	$FF
	.byte	$FF
	.byte	$FF
	.byte	$FF
	.byte	$FF
	.byte	$FF
	.byte	$FF
	.byte	$FF
	.byte	$FF
	.byte	$FF
	.byte	$FF
	.byte	$FF
	.byte	$FF
	.byte	$FF
	.byte	$FF
	.byte	$FF
	.byte	$FF
	.byte	$FF
	.byte	$FF
	.byte	$FF
	.byte	$FF
	.byte	$FF
	.byte	$FF
	.byte	$FF
	.byte	$FF
	.byte	$FF
	.byte	$FF
	.byte	$FF
	.byte	$FF
	.byte	$FF
	.byte	$FF
	.byte	$FF
	.byte	$FF
	.byte	$FF
	.byte	$FF
	.byte	$FF
	.byte	$FF
	.byte	$FF
_nameTableLoader:
	.byte	$60
	.byte	$00
	.byte	$40
	.byte	$00
	.byte	$00
	.byte	$00
	.byte	$00
	.byte	$00
	.byte	$00
	.byte	$00
	.byte	$00
	.byte	$00
	.byte	$00
	.byte	$00
	.byte	$00
	.byte	$00
	.byte	$00
	.byte	$00
	.byte	$00
	.byte	$00
	.byte	$00
	.byte	$00
	.byte	$00
	.byte	$00
	.byte	$00
	.byte	$00
	.byte	$00
	.byte	$00
	.byte	$00
	.byte	$00
	.byte	$00
	.byte	$00
	.byte	$00
	.byte	$00
	.byte	$00
	.byte	$00
	.byte	$00
	.byte	$00
	.byte	$00
	.byte	$00
	.byte	$00
	.byte	$00
	.byte	$00
	.byte	$00
	.byte	$00
	.byte	$00
	.byte	$00
	.byte	$00
	.byte	$00
	.byte	$00
	.byte	$00
	.byte	$00
	.byte	$00
	.byte	$00
	.byte	$00
	.byte	$00
	.byte	$00
	.byte	$00
	.byte	$00
	.byte	$00
	.byte	$00
	.byte	$00
	.byte	$00
	.byte	$00
	.byte	$00
	.byte	$00
	.byte	$00
	.byte	$FF
_scy:
	.word	$0000
_new_pos:
	.word	$0000
_black:
	.byte	$FF
_delay_time:
	.byte	$03
_palette:
	.byte	$0F
	.byte	$07
	.byte	$17
	.byte	$27
	.byte	$0F
	.byte	$0F
	.byte	$0F
	.byte	$0F
	.byte	$0F
	.byte	$0F
	.byte	$0F
	.byte	$0F
	.byte	$0F
	.byte	$07
	.byte	$17
	.byte	$30
_castle_messages:
	.addr	S0013
	.addr	S0014
	.addr	S0015
	.addr	S0016
_end_castle_messages_inscroll:
	.addr	S0018
	.addr	S0019
	.addr	S001A
_std_print_sender:
	.byte	$62
	.byte	$89
	.byte	$01
	.byte	$41
	.byte	$FF
_double_print_sender:
	.byte	$00
	.byte	$00
	.byte	$01
	.byte	$41
	.byte	$00
	.byte	$00
	.byte	$01
	.byte	$42
	.byte	$FF
_irq_buffer:
	.byte	$F7
	.byte	$00
	.byte	$F8
	.byte	$01
	.byte	$96
	.byte	$F7
	.byte	$04
	.byte	$F8
	.byte	$05
	.byte	$FF
_irq_buffer_castle_1:
	.byte	$F7
	.byte	$20
	.byte	$F8
	.byte	$21
	.byte	$96
	.byte	$FE
	.byte	$04
	.byte	$FD
	.byte	$F2
	.byte	$98
	.byte	$F7
	.byte	$04
	.byte	$F8
	.byte	$05
	.byte	$FF
_irq_buffer_castle_2:
	.byte	$F7
	.byte	$20
	.byte	$F8
	.byte	$21
	.byte	$F9
	.byte	$22
	.byte	$FA
	.byte	$23
	.byte	$91
	.byte	$F7
	.byte	$24
	.byte	$F8
	.byte	$25
	.byte	$F9
	.byte	$26
	.byte	$FA
	.byte	$27
	.byte	$01
	.byte	$F2
	.byte	$98
	.byte	$F7
	.byte	$04
	.byte	$F8
	.byte	$05
	.byte	$FF
_irq_buffer_castle_3:
	.byte	$F7
	.byte	$24
	.byte	$F8
	.byte	$25
	.byte	$96
	.byte	$FE
	.byte	$04
	.byte	$FD
	.byte	$F2
	.byte	$98
	.byte	$F7
	.byte	$04
	.byte	$F8
	.byte	$05
	.byte	$FF
_irq_buffer_end_castle:
	.byte	$F7
	.byte	$28
	.byte	$F8
	.byte	$29
	.byte	$82
	.byte	$FE
	.byte	$03
	.byte	$FD
	.byte	$F2
	.byte	$00
	.byte	$F7
	.byte	$04
	.byte	$F8
	.byte	$05
	.byte	$4B
	.byte	$FE
	.byte	$08
	.byte	$F2
	.byte	$00
	.byte	$FF
_line_vram_sender:
	.byte	$00
	.byte	$00
	.byte	$20
	.byte	$00
	.byte	$00
	.byte	$00
	.byte	$00
	.byte	$00
	.byte	$00
	.byte	$00
	.byte	$00
	.byte	$00
	.byte	$00
	.byte	$00
	.byte	$00
	.byte	$00
	.byte	$00
	.byte	$00
	.byte	$00
	.byte	$00
	.byte	$00
	.byte	$00
	.byte	$00
	.byte	$00
	.byte	$00
	.byte	$00
	.byte	$00
	.byte	$00
	.byte	$00
	.byte	$00
	.byte	$00
	.byte	$00
	.byte	$00
	.byte	$00
	.byte	$00
	.byte	$FF

.segment	"RODATA"

_allOk:
	.byte	$A0
	.byte	$00
	.byte	$A0
	.byte	$83
	.byte	$01
	.byte	$A0
	.byte	$0C
	.byte	$45
	.byte	$46
	.byte	$A0
	.byte	$09
	.byte	$00
	.byte	$A0
	.byte	$06
	.byte	$02
	.byte	$03
	.byte	$A0
	.byte	$07
	.byte	$04
	.byte	$05
	.byte	$03
	.byte	$04
	.byte	$03
	.byte	$2F
	.byte	$16
	.byte	$A0
	.byte	$09
	.byte	$47
	.byte	$00
	.byte	$A0
	.byte	$05
	.byte	$06
	.byte	$03
	.byte	$A0
	.byte	$07
	.byte	$07
	.byte	$08
	.byte	$09
	.byte	$0A
	.byte	$03
	.byte	$48
	.byte	$16
	.byte	$A0
	.byte	$06
	.byte	$49
	.byte	$4A
	.byte	$16
	.byte	$4B
	.byte	$00
	.byte	$A0
	.byte	$05
	.byte	$06
	.byte	$03
	.byte	$0B
	.byte	$0C
	.byte	$0D
	.byte	$0E
	.byte	$0F
	.byte	$03
	.byte	$10
	.byte	$11
	.byte	$12
	.byte	$13
	.byte	$14
	.byte	$29
	.byte	$4C
	.byte	$16
	.byte	$A0
	.byte	$02
	.byte	$4D
	.byte	$4E
	.byte	$16
	.byte	$4F
	.byte	$50
	.byte	$51
	.byte	$16
	.byte	$4B
	.byte	$00
	.byte	$A0
	.byte	$05
	.byte	$06
	.byte	$03
	.byte	$15
	.byte	$16
	.byte	$A0
	.byte	$02
	.byte	$17
	.byte	$03
	.byte	$18
	.byte	$19
	.byte	$1A
	.byte	$1B
	.byte	$1C
	.byte	$2F
	.byte	$16
	.byte	$A0
	.byte	$02
	.byte	$52
	.byte	$53
	.byte	$54
	.byte	$55
	.byte	$16
	.byte	$56
	.byte	$57
	.byte	$16
	.byte	$4B
	.byte	$00
	.byte	$A0
	.byte	$05
	.byte	$06
	.byte	$03
	.byte	$1D
	.byte	$16
	.byte	$A0
	.byte	$03
	.byte	$1E
	.byte	$1F
	.byte	$20
	.byte	$21
	.byte	$03
	.byte	$03
	.byte	$48
	.byte	$16
	.byte	$A0
	.byte	$02
	.byte	$58
	.byte	$16
	.byte	$16
	.byte	$59
	.byte	$5A
	.byte	$16
	.byte	$A0
	.byte	$02
	.byte	$4B
	.byte	$00
	.byte	$A0
	.byte	$05
	.byte	$06
	.byte	$03
	.byte	$22
	.byte	$23
	.byte	$16
	.byte	$24
	.byte	$25
	.byte	$26
	.byte	$27
	.byte	$28
	.byte	$03
	.byte	$03
	.byte	$29
	.byte	$4C
	.byte	$16
	.byte	$5B
	.byte	$5C
	.byte	$5D
	.byte	$16
	.byte	$A0
	.byte	$02
	.byte	$5E
	.byte	$5F
	.byte	$16
	.byte	$16
	.byte	$4B
	.byte	$00
	.byte	$A0
	.byte	$05
	.byte	$06
	.byte	$03
	.byte	$03
	.byte	$2A
	.byte	$16
	.byte	$16
	.byte	$2B
	.byte	$2C
	.byte	$2D
	.byte	$2E
	.byte	$03
	.byte	$03
	.byte	$2F
	.byte	$16
	.byte	$60
	.byte	$61
	.byte	$62
	.byte	$63
	.byte	$64
	.byte	$65
	.byte	$66
	.byte	$67
	.byte	$68
	.byte	$69
	.byte	$6A
	.byte	$4B
	.byte	$00
	.byte	$A0
	.byte	$05
	.byte	$06
	.byte	$03
	.byte	$30
	.byte	$31
	.byte	$16
	.byte	$16
	.byte	$32
	.byte	$33
	.byte	$34
	.byte	$35
	.byte	$03
	.byte	$03
	.byte	$36
	.byte	$16
	.byte	$6B
	.byte	$6C
	.byte	$16
	.byte	$6D
	.byte	$6E
	.byte	$6F
	.byte	$70
	.byte	$71
	.byte	$72
	.byte	$73
	.byte	$74
	.byte	$4B
	.byte	$00
	.byte	$A0
	.byte	$05
	.byte	$06
	.byte	$03
	.byte	$37
	.byte	$16
	.byte	$A0
	.byte	$02
	.byte	$38
	.byte	$03
	.byte	$39
	.byte	$03
	.byte	$03
	.byte	$3A
	.byte	$3B
	.byte	$16
	.byte	$75
	.byte	$16
	.byte	$76
	.byte	$77
	.byte	$16
	.byte	$A0
	.byte	$02
	.byte	$78
	.byte	$79
	.byte	$7A
	.byte	$16
	.byte	$4B
	.byte	$00
	.byte	$A0
	.byte	$05
	.byte	$06
	.byte	$03
	.byte	$3C
	.byte	$16
	.byte	$A0
	.byte	$02
	.byte	$3D
	.byte	$03
	.byte	$39
	.byte	$03
	.byte	$03
	.byte	$3E
	.byte	$16
	.byte	$A0
	.byte	$03
	.byte	$7B
	.byte	$16
	.byte	$A0
	.byte	$03
	.byte	$7C
	.byte	$16
	.byte	$A0
	.byte	$02
	.byte	$4B
	.byte	$00
	.byte	$A0
	.byte	$05
	.byte	$06
	.byte	$3F
	.byte	$16
	.byte	$16
	.byte	$40
	.byte	$41
	.byte	$42
	.byte	$43
	.byte	$39
	.byte	$03
	.byte	$03
	.byte	$44
	.byte	$16
	.byte	$A0
	.byte	$02
	.byte	$52
	.byte	$7D
	.byte	$16
	.byte	$7E
	.byte	$7F
	.byte	$16
	.byte	$80
	.byte	$55
	.byte	$16
	.byte	$16
	.byte	$4B
	.byte	$00
	.byte	$A0
	.byte	$05
	.byte	$06
	.byte	$03
	.byte	$81
	.byte	$82
	.byte	$83
	.byte	$84
	.byte	$85
	.byte	$03
	.byte	$39
	.byte	$03
	.byte	$3A
	.byte	$3B
	.byte	$16
	.byte	$16
	.byte	$91
	.byte	$92
	.byte	$93
	.byte	$94
	.byte	$95
	.byte	$96
	.byte	$97
	.byte	$98
	.byte	$99
	.byte	$9A
	.byte	$16
	.byte	$4B
	.byte	$00
	.byte	$A0
	.byte	$05
	.byte	$06
	.byte	$03
	.byte	$86
	.byte	$87
	.byte	$88
	.byte	$89
	.byte	$8A
	.byte	$8B
	.byte	$8C
	.byte	$03
	.byte	$3E
	.byte	$16
	.byte	$A0
	.byte	$03
	.byte	$9B
	.byte	$9C
	.byte	$16
	.byte	$A0
	.byte	$03
	.byte	$9D
	.byte	$9E
	.byte	$16
	.byte	$16
	.byte	$4B
	.byte	$00
	.byte	$A0
	.byte	$05
	.byte	$8D
	.byte	$8E
	.byte	$A0
	.byte	$08
	.byte	$8F
	.byte	$90
	.byte	$A0
	.byte	$0D
	.byte	$9F
	.byte	$00
	.byte	$A0
	.byte	$FE
	.byte	$00
	.byte	$A0
	.byte	$A2
	.byte	$00
	.byte	$A0
	.byte	$00
_allWrong:
	.byte	$00
	.byte	$00
	.byte	$00
	.byte	$00
	.byte	$00
	.byte	$00
	.byte	$00
	.byte	$00
	.byte	$00
	.byte	$00
	.byte	$00
	.byte	$00
	.byte	$00
	.byte	$00
	.byte	$00
	.byte	$00
	.byte	$00
	.byte	$00
	.byte	$00
	.byte	$00
	.byte	$00
	.byte	$00
	.byte	$00
	.byte	$00
	.byte	$00
	.byte	$00
	.byte	$00
	.byte	$00
	.byte	$00
	.byte	$00
	.byte	$00
	.byte	$00
	.byte	$00
	.byte	$00
	.byte	$00
	.byte	$00
	.byte	$00
	.byte	$00
	.byte	$00
	.byte	$00
	.byte	$00
	.byte	$00
	.byte	$00
	.byte	$00
	.byte	$00
	.byte	$00
	.byte	$00
	.byte	$00
	.byte	$00
	.byte	$00
	.byte	$00
	.byte	$00
	.byte	$00
	.byte	$00
	.byte	$00
	.byte	$00
	.byte	$00
	.byte	$00
	.byte	$00
	.byte	$00
	.byte	$00
	.byte	$00
	.byte	$00
	.byte	$00
	.byte	$00
	.byte	$00
	.byte	$00
	.byte	$00
	.byte	$00
	.byte	$00
	.byte	$00
	.byte	$00
	.byte	$00
	.byte	$00
	.byte	$00
	.byte	$00
	.byte	$00
	.byte	$00
	.byte	$00
	.byte	$00
	.byte	$00
	.byte	$00
	.byte	$00
	.byte	$00
	.byte	$00
	.byte	$00
	.byte	$00
	.byte	$00
	.byte	$00
	.byte	$00
	.byte	$00
	.byte	$00
	.byte	$00
	.byte	$00
	.byte	$00
	.byte	$00
	.byte	$00
	.byte	$00
	.byte	$00
	.byte	$00
	.byte	$00
	.byte	$00
	.byte	$00
	.byte	$00
	.byte	$00
	.byte	$00
	.byte	$00
	.byte	$00
	.byte	$00
	.byte	$00
	.byte	$00
	.byte	$00
	.byte	$00
	.byte	$00
	.byte	$00
	.byte	$00
	.byte	$00
	.byte	$00
	.byte	$00
	.byte	$00
	.byte	$00
	.byte	$00
	.byte	$00
	.byte	$00
	.byte	$00
	.byte	$00
	.byte	$00
	.byte	$00
	.byte	$00
	.byte	$00
	.byte	$00
	.byte	$00
	.byte	$01
	.byte	$01
	.byte	$01
	.byte	$01
	.byte	$01
	.byte	$01
	.byte	$01
	.byte	$01
	.byte	$01
	.byte	$01
	.byte	$01
	.byte	$01
	.byte	$01
	.byte	$52
	.byte	$53
	.byte	$53
	.byte	$53
	.byte	$53
	.byte	$53
	.byte	$53
	.byte	$53
	.byte	$53
	.byte	$53
	.byte	$53
	.byte	$00
	.byte	$00
	.byte	$00
	.byte	$00
	.byte	$00
	.byte	$00
	.byte	$00
	.byte	$02
	.byte	$03
	.byte	$03
	.byte	$03
	.byte	$03
	.byte	$03
	.byte	$03
	.byte	$03
	.byte	$03
	.byte	$04
	.byte	$05
	.byte	$03
	.byte	$04
	.byte	$03
	.byte	$36
	.byte	$18
	.byte	$18
	.byte	$18
	.byte	$18
	.byte	$18
	.byte	$18
	.byte	$18
	.byte	$18
	.byte	$18
	.byte	$18
	.byte	$54
	.byte	$00
	.byte	$00
	.byte	$00
	.byte	$00
	.byte	$00
	.byte	$00
	.byte	$06
	.byte	$03
	.byte	$03
	.byte	$03
	.byte	$03
	.byte	$03
	.byte	$03
	.byte	$03
	.byte	$03
	.byte	$07
	.byte	$08
	.byte	$09
	.byte	$0A
	.byte	$03
	.byte	$55
	.byte	$18
	.byte	$18
	.byte	$18
	.byte	$18
	.byte	$18
	.byte	$18
	.byte	$18
	.byte	$56
	.byte	$57
	.byte	$18
	.byte	$58
	.byte	$00
	.byte	$00
	.byte	$00
	.byte	$00
	.byte	$00
	.byte	$00
	.byte	$06
	.byte	$03
	.byte	$0B
	.byte	$0C
	.byte	$0D
	.byte	$0E
	.byte	$0F
	.byte	$03
	.byte	$10
	.byte	$11
	.byte	$12
	.byte	$13
	.byte	$14
	.byte	$2E
	.byte	$59
	.byte	$18
	.byte	$18
	.byte	$18
	.byte	$5A
	.byte	$5B
	.byte	$18
	.byte	$5C
	.byte	$5D
	.byte	$5E
	.byte	$18
	.byte	$58
	.byte	$00
	.byte	$00
	.byte	$00
	.byte	$00
	.byte	$00
	.byte	$00
	.byte	$06
	.byte	$03
	.byte	$15
	.byte	$16
	.byte	$17
	.byte	$18
	.byte	$19
	.byte	$03
	.byte	$1A
	.byte	$1B
	.byte	$1C
	.byte	$1D
	.byte	$1E
	.byte	$36
	.byte	$18
	.byte	$18
	.byte	$18
	.byte	$4C
	.byte	$5F
	.byte	$60
	.byte	$61
	.byte	$18
	.byte	$62
	.byte	$63
	.byte	$18
	.byte	$58
	.byte	$00
	.byte	$00
	.byte	$00
	.byte	$00
	.byte	$00
	.byte	$00
	.byte	$06
	.byte	$03
	.byte	$1F
	.byte	$20
	.byte	$21
	.byte	$18
	.byte	$18
	.byte	$22
	.byte	$23
	.byte	$24
	.byte	$25
	.byte	$03
	.byte	$03
	.byte	$55
	.byte	$18
	.byte	$18
	.byte	$18
	.byte	$64
	.byte	$65
	.byte	$66
	.byte	$67
	.byte	$68
	.byte	$18
	.byte	$18
	.byte	$18
	.byte	$58
	.byte	$00
	.byte	$00
	.byte	$00
	.byte	$00
	.byte	$00
	.byte	$00
	.byte	$06
	.byte	$03
	.byte	$26
	.byte	$27
	.byte	$28
	.byte	$29
	.byte	$2A
	.byte	$2B
	.byte	$2C
	.byte	$2D
	.byte	$03
	.byte	$03
	.byte	$2E
	.byte	$59
	.byte	$18
	.byte	$69
	.byte	$6A
	.byte	$6B
	.byte	$18
	.byte	$6C
	.byte	$6D
	.byte	$6E
	.byte	$6F
	.byte	$18
	.byte	$18
	.byte	$58
	.byte	$00
	.byte	$00
	.byte	$00
	.byte	$00
	.byte	$00
	.byte	$00
	.byte	$06
	.byte	$03
	.byte	$03
	.byte	$2F
	.byte	$30
	.byte	$31
	.byte	$32
	.byte	$33
	.byte	$34
	.byte	$35
	.byte	$03
	.byte	$03
	.byte	$36
	.byte	$18
	.byte	$70
	.byte	$71
	.byte	$72
	.byte	$73
	.byte	$74
	.byte	$75
	.byte	$76
	.byte	$77
	.byte	$78
	.byte	$79
	.byte	$7A
	.byte	$58
	.byte	$00
	.byte	$00
	.byte	$00
	.byte	$00
	.byte	$00
	.byte	$00
	.byte	$06
	.byte	$03
	.byte	$37
	.byte	$38
	.byte	$39
	.byte	$18
	.byte	$3A
	.byte	$3B
	.byte	$3C
	.byte	$3D
	.byte	$03
	.byte	$03
	.byte	$3E
	.byte	$18
	.byte	$7B
	.byte	$7C
	.byte	$18
	.byte	$7D
	.byte	$7E
	.byte	$7F
	.byte	$80
	.byte	$81
	.byte	$82
	.byte	$83
	.byte	$84
	.byte	$58
	.byte	$00
	.byte	$00
	.byte	$00
	.byte	$00
	.byte	$00
	.byte	$00
	.byte	$06
	.byte	$03
	.byte	$3F
	.byte	$40
	.byte	$41
	.byte	$18
	.byte	$42
	.byte	$03
	.byte	$43
	.byte	$03
	.byte	$03
	.byte	$44
	.byte	$45
	.byte	$18
	.byte	$85
	.byte	$18
	.byte	$86
	.byte	$87
	.byte	$88
	.byte	$18
	.byte	$18
	.byte	$89
	.byte	$8A
	.byte	$8B
	.byte	$18
	.byte	$58
	.byte	$00
	.byte	$00
	.byte	$00
	.byte	$00
	.byte	$00
	.byte	$00
	.byte	$06
	.byte	$03
	.byte	$46
	.byte	$47
	.byte	$48
	.byte	$18
	.byte	$49
	.byte	$03
	.byte	$43
	.byte	$03
	.byte	$03
	.byte	$4A
	.byte	$18
	.byte	$18
	.byte	$18
	.byte	$18
	.byte	$8C
	.byte	$18
	.byte	$8D
	.byte	$8E
	.byte	$18
	.byte	$8F
	.byte	$18
	.byte	$18
	.byte	$18
	.byte	$58
	.byte	$00
	.byte	$00
	.byte	$00
	.byte	$00
	.byte	$00
	.byte	$00
	.byte	$06
	.byte	$4B
	.byte	$18
	.byte	$4C
	.byte	$4D
	.byte	$4E
	.byte	$4F
	.byte	$50
	.byte	$43
	.byte	$03
	.byte	$03
	.byte	$51
	.byte	$18
	.byte	$18
	.byte	$18
	.byte	$4C
	.byte	$90
	.byte	$18
	.byte	$91
	.byte	$92
	.byte	$93
	.byte	$94
	.byte	$61
	.byte	$18
	.byte	$18
	.byte	$58
	.byte	$00
	.byte	$00
	.byte	$00
	.byte	$00
	.byte	$00
	.byte	$00
	.byte	$06
	.byte	$03
	.byte	$95
	.byte	$96
	.byte	$97
	.byte	$98
	.byte	$99
	.byte	$03
	.byte	$43
	.byte	$03
	.byte	$44
	.byte	$45
	.byte	$18
	.byte	$18
	.byte	$A5
	.byte	$A6
	.byte	$A7
	.byte	$A8
	.byte	$A9
	.byte	$AA
	.byte	$AB
	.byte	$AC
	.byte	$AD
	.byte	$AE
	.byte	$18
	.byte	$58
	.byte	$00
	.byte	$00
	.byte	$00
	.byte	$00
	.byte	$00
	.byte	$00
	.byte	$06
	.byte	$03
	.byte	$9A
	.byte	$9B
	.byte	$9C
	.byte	$9D
	.byte	$9E
	.byte	$9F
	.byte	$A0
	.byte	$03
	.byte	$4A
	.byte	$18
	.byte	$18
	.byte	$18
	.byte	$18
	.byte	$AF
	.byte	$B0
	.byte	$18
	.byte	$18
	.byte	$18
	.byte	$18
	.byte	$B1
	.byte	$B2
	.byte	$18
	.byte	$18
	.byte	$58
	.byte	$00
	.byte	$00
	.byte	$00
	.byte	$00
	.byte	$00
	.byte	$00
	.byte	$A1
	.byte	$A2
	.byte	$A2
	.byte	$A2
	.byte	$A2
	.byte	$A2
	.byte	$A2
	.byte	$A2
	.byte	$A2
	.byte	$A2
	.byte	$A3
	.byte	$A4
	.byte	$A4
	.byte	$A4
	.byte	$A4
	.byte	$A4
	.byte	$A4
	.byte	$A4
	.byte	$A4
	.byte	$A4
	.byte	$A4
	.byte	$A4
	.byte	$A4
	.byte	$A4
	.byte	$A4
	.byte	$B3
	.byte	$00
	.byte	$00
	.byte	$00
	.byte	$00
	.byte	$00
	.byte	$00
	.byte	$00
	.byte	$00
	.byte	$00
	.byte	$00
	.byte	$00
	.byte	$00
	.byte	$00
	.byte	$00
	.byte	$00
	.byte	$00
	.byte	$00
	.byte	$00
	.byte	$00
	.byte	$00
	.byte	$00
	.byte	$00
	.byte	$00
	.byte	$00
	.byte	$00
	.byte	$00
	.byte	$00
	.byte	$00
	.byte	$00
	.byte	$00
	.byte	$00
	.byte	$00
	.byte	$00
	.byte	$00
	.byte	$00
	.byte	$00
	.byte	$00
	.byte	$00
	.byte	$00
	.byte	$00
	.byte	$00
	.byte	$00
	.byte	$00
	.byte	$00
	.byte	$00
	.byte	$00
	.byte	$00
	.byte	$00
	.byte	$00
	.byte	$00
	.byte	$00
	.byte	$00
	.byte	$00
	.byte	$00
	.byte	$00
	.byte	$00
	.byte	$00
	.byte	$00
	.byte	$00
	.byte	$00
	.byte	$00
	.byte	$00
	.byte	$00
	.byte	$00
	.byte	$00
	.byte	$00
	.byte	$00
	.byte	$00
	.byte	$00
	.byte	$00
	.byte	$00
	.byte	$00
	.byte	$00
	.byte	$00
	.byte	$00
	.byte	$00
	.byte	$00
	.byte	$00
	.byte	$00
	.byte	$00
	.byte	$00
	.byte	$00
	.byte	$00
	.byte	$00
	.byte	$00
	.byte	$00
	.byte	$00
	.byte	$00
	.byte	$00
	.byte	$00
	.byte	$00
	.byte	$00
	.byte	$00
	.byte	$00
	.byte	$00
	.byte	$00
	.byte	$00
	.byte	$00
	.byte	$00
	.byte	$00
	.byte	$00
	.byte	$00
	.byte	$00
	.byte	$00
	.byte	$00
	.byte	$00
	.byte	$00
	.byte	$00
	.byte	$00
	.byte	$00
	.byte	$00
	.byte	$00
	.byte	$00
	.byte	$00
	.byte	$00
	.byte	$00
	.byte	$00
	.byte	$00
	.byte	$00
	.byte	$00
	.byte	$00
	.byte	$00
	.byte	$00
	.byte	$00
	.byte	$00
	.byte	$00
	.byte	$00
	.byte	$00
	.byte	$00
	.byte	$00
	.byte	$00
	.byte	$00
	.byte	$00
	.byte	$00
	.byte	$00
	.byte	$00
	.byte	$00
	.byte	$00
	.byte	$00
	.byte	$00
	.byte	$00
	.byte	$00
	.byte	$00
	.byte	$00
	.byte	$00
	.byte	$00
	.byte	$00
	.byte	$00
	.byte	$00
	.byte	$00
	.byte	$00
	.byte	$00
	.byte	$00
	.byte	$00
	.byte	$00
	.byte	$00
	.byte	$00
	.byte	$00
	.byte	$00
	.byte	$00
	.byte	$00
	.byte	$00
	.byte	$00
	.byte	$00
	.byte	$00
	.byte	$00
	.byte	$00
	.byte	$00
	.byte	$00
	.byte	$00
	.byte	$00
	.byte	$00
	.byte	$00
	.byte	$00
	.byte	$00
	.byte	$00
	.byte	$00
	.byte	$00
	.byte	$00
	.byte	$00
	.byte	$00
	.byte	$00
	.byte	$00
	.byte	$00
	.byte	$00
	.byte	$00
	.byte	$00
	.byte	$00
	.byte	$00
	.byte	$00
	.byte	$00
	.byte	$00
	.byte	$00
	.byte	$00
	.byte	$00
	.byte	$00
	.byte	$00
	.byte	$00
	.byte	$00
	.byte	$00
	.byte	$00
	.byte	$00
	.byte	$00
	.byte	$00
	.byte	$00
	.byte	$00
	.byte	$00
	.byte	$00
	.byte	$00
	.byte	$00
	.byte	$00
	.byte	$00
	.byte	$00
	.byte	$00
	.byte	$00
	.byte	$00
	.byte	$00
	.byte	$00
	.byte	$00
	.byte	$00
	.byte	$00
	.byte	$00
	.byte	$00
	.byte	$00
	.byte	$00
	.byte	$00
	.byte	$00
	.byte	$00
	.byte	$00
	.byte	$00
	.byte	$00
	.byte	$00
	.byte	$00
	.byte	$00
	.byte	$00
	.byte	$00
	.byte	$00
	.byte	$00
	.byte	$00
	.byte	$00
	.byte	$00
	.byte	$00
	.byte	$00
	.byte	$00
	.byte	$00
	.byte	$00
	.byte	$00
	.byte	$00
	.byte	$00
	.byte	$00
	.byte	$00
	.byte	$00
	.byte	$00
	.byte	$00
	.byte	$00
	.byte	$00
	.byte	$00
	.byte	$00
	.byte	$00
	.byte	$00
	.byte	$00
	.byte	$00
	.byte	$00
	.byte	$00
	.byte	$00
	.byte	$00
	.byte	$00
	.byte	$00
	.byte	$00
	.byte	$00
	.byte	$00
	.byte	$00
	.byte	$00
	.byte	$00
	.byte	$00
	.byte	$00
	.byte	$00
	.byte	$00
	.byte	$00
	.byte	$00
	.byte	$00
	.byte	$00
	.byte	$00
	.byte	$00
	.byte	$00
	.byte	$00
	.byte	$00
	.byte	$00
	.byte	$00
	.byte	$00
	.byte	$00
	.byte	$00
	.byte	$00
	.byte	$00
	.byte	$00
	.byte	$00
	.byte	$00
	.byte	$00
	.byte	$00
	.byte	$00
	.byte	$00
	.byte	$00
	.byte	$00
	.byte	$00
	.byte	$00
	.byte	$00
	.byte	$00
	.byte	$00
	.byte	$00
	.byte	$00
	.byte	$00
	.byte	$00
	.byte	$00
	.byte	$00
	.byte	$00
	.byte	$00
	.byte	$00
	.byte	$00
	.byte	$00
	.byte	$00
	.byte	$00
	.byte	$00
	.byte	$00
	.byte	$00
	.byte	$00
	.byte	$00
	.byte	$00
	.byte	$00
	.byte	$00
	.byte	$00
	.byte	$00
	.byte	$00
	.byte	$00
	.byte	$00
	.byte	$00
	.byte	$00
	.byte	$00
	.byte	$00
	.byte	$00
	.byte	$00
	.byte	$00
	.byte	$00
	.byte	$00
	.byte	$00
	.byte	$00
	.byte	$00
	.byte	$00
	.byte	$00
	.byte	$00
	.byte	$00
	.byte	$00
	.byte	$00
	.byte	$00
	.byte	$00
	.byte	$00
	.byte	$00
	.byte	$00
	.byte	$00
	.byte	$00
	.byte	$00
	.byte	$00
	.byte	$00
	.byte	$00
	.byte	$00
	.byte	$00
	.byte	$00
	.byte	$00
	.byte	$00
	.byte	$00
	.byte	$00
	.byte	$00
	.byte	$00
	.byte	$00
	.byte	$00
	.byte	$00
	.byte	$00
	.byte	$00
	.byte	$00
	.byte	$00
	.byte	$00
	.byte	$00
	.byte	$00
	.byte	$00
	.byte	$00
	.byte	$00
	.byte	$00
	.byte	$00
	.byte	$00
	.byte	$00
	.byte	$00
	.byte	$00
	.byte	$00
	.byte	$00
	.byte	$00
	.byte	$00
	.byte	$00
	.byte	$00
	.byte	$00
	.byte	$00
	.byte	$00
	.byte	$00
	.byte	$00
	.byte	$00
	.byte	$00
	.byte	$00
	.byte	$00
	.byte	$00
	.byte	$00
	.byte	$00
	.byte	$00
	.byte	$00
	.byte	$00
	.byte	$00
	.byte	$00
	.byte	$00
	.byte	$00
	.byte	$00
	.byte	$00
	.byte	$00
_disaster:
	.byte	$00
	.byte	$00
	.byte	$00
	.byte	$00
	.byte	$00
	.byte	$00
	.byte	$01
	.byte	$02
	.byte	$00
	.byte	$00
	.byte	$00
	.byte	$00
	.byte	$00
	.byte	$00
	.byte	$00
	.byte	$00
	.byte	$00
	.byte	$00
	.byte	$00
	.byte	$00
	.byte	$00
	.byte	$03
	.byte	$04
	.byte	$00
	.byte	$00
	.byte	$00
	.byte	$00
	.byte	$05
	.byte	$00
	.byte	$00
	.byte	$00
	.byte	$00
	.byte	$00
	.byte	$00
	.byte	$00
	.byte	$00
	.byte	$00
	.byte	$00
	.byte	$06
	.byte	$07
	.byte	$08
	.byte	$00
	.byte	$00
	.byte	$01
	.byte	$09
	.byte	$0A
	.byte	$0B
	.byte	$0C
	.byte	$0D
	.byte	$0E
	.byte	$0F
	.byte	$09
	.byte	$10
	.byte	$11
	.byte	$04
	.byte	$00
	.byte	$00
	.byte	$00
	.byte	$00
	.byte	$12
	.byte	$00
	.byte	$00
	.byte	$00
	.byte	$00
	.byte	$00
	.byte	$00
	.byte	$00
	.byte	$00
	.byte	$00
	.byte	$13
	.byte	$14
	.byte	$15
	.byte	$16
	.byte	$17
	.byte	$00
	.byte	$00
	.byte	$01
	.byte	$18
	.byte	$19
	.byte	$1A
	.byte	$1B
	.byte	$1C
	.byte	$1D
	.byte	$10
	.byte	$1E
	.byte	$1F
	.byte	$20
	.byte	$00
	.byte	$00
	.byte	$00
	.byte	$00
	.byte	$21
	.byte	$17
	.byte	$00
	.byte	$00
	.byte	$00
	.byte	$00
	.byte	$00
	.byte	$00
	.byte	$22
	.byte	$23
	.byte	$00
	.byte	$00
	.byte	$22
	.byte	$24
	.byte	$25
	.byte	$00
	.byte	$00
	.byte	$00
	.byte	$00
	.byte	$06
	.byte	$26
	.byte	$27
	.byte	$17
	.byte	$00
	.byte	$00
	.byte	$28
	.byte	$29
	.byte	$00
	.byte	$00
	.byte	$00
	.byte	$00
	.byte	$00
	.byte	$00
	.byte	$2A
	.byte	$00
	.byte	$00
	.byte	$00
	.byte	$00
	.byte	$00
	.byte	$00
	.byte	$2B
	.byte	$00
	.byte	$00
	.byte	$2C
	.byte	$00
	.byte	$2D
	.byte	$2E
	.byte	$00
	.byte	$00
	.byte	$00
	.byte	$00
	.byte	$00
	.byte	$01
	.byte	$04
	.byte	$00
	.byte	$0E
	.byte	$2F
	.byte	$30
	.byte	$00
	.byte	$00
	.byte	$00
	.byte	$00
	.byte	$00
	.byte	$00
	.byte	$00
	.byte	$00
	.byte	$00
	.byte	$00
	.byte	$00
	.byte	$00
	.byte	$00
	.byte	$00
	.byte	$00
	.byte	$00
	.byte	$00
	.byte	$00
	.byte	$00
	.byte	$01
	.byte	$00
	.byte	$31
	.byte	$32
	.byte	$00
	.byte	$00
	.byte	$00
	.byte	$00
	.byte	$0E
	.byte	$33
	.byte	$10
	.byte	$34
	.byte	$00
	.byte	$00
	.byte	$00
	.byte	$00
	.byte	$00
	.byte	$00
	.byte	$00
	.byte	$00
	.byte	$00
	.byte	$00
	.byte	$00
	.byte	$00
	.byte	$00
	.byte	$00
	.byte	$00
	.byte	$00
	.byte	$00
	.byte	$00
	.byte	$00
	.byte	$00
	.byte	$00
	.byte	$00
	.byte	$00
	.byte	$00
	.byte	$00
	.byte	$00
	.byte	$00
	.byte	$0E
	.byte	$0E
	.byte	$35
	.byte	$00
	.byte	$00
	.byte	$00
	.byte	$00
	.byte	$00
	.byte	$00
	.byte	$00
	.byte	$00
	.byte	$00
	.byte	$00
	.byte	$00
	.byte	$00
	.byte	$00
	.byte	$00
	.byte	$00
	.byte	$00
	.byte	$00
	.byte	$00
	.byte	$00
	.byte	$00
	.byte	$00
	.byte	$00
	.byte	$00
	.byte	$00
	.byte	$00
	.byte	$00
	.byte	$00
	.byte	$00
	.byte	$00
	.byte	$36
	.byte	$00
	.byte	$37
	.byte	$00
	.byte	$00
	.byte	$00
	.byte	$00
	.byte	$00
	.byte	$00
	.byte	$00
	.byte	$00
	.byte	$00
	.byte	$00
	.byte	$00
	.byte	$00
	.byte	$00
	.byte	$00
	.byte	$00
	.byte	$38
	.byte	$39
	.byte	$00
	.byte	$00
	.byte	$00
	.byte	$00
	.byte	$00
	.byte	$00
	.byte	$00
	.byte	$00
	.byte	$00
	.byte	$00
	.byte	$00
	.byte	$00
	.byte	$3A
	.byte	$3B
	.byte	$04
	.byte	$00
	.byte	$00
	.byte	$00
	.byte	$00
	.byte	$00
	.byte	$00
	.byte	$00
	.byte	$00
	.byte	$00
	.byte	$00
	.byte	$00
	.byte	$00
	.byte	$00
	.byte	$00
	.byte	$3C
	.byte	$3D
	.byte	$3E
	.byte	$3F
	.byte	$40
	.byte	$41
	.byte	$42
	.byte	$43
	.byte	$38
	.byte	$44
	.byte	$0B
	.byte	$00
	.byte	$45
	.byte	$46
	.byte	$00
	.byte	$47
	.byte	$48
	.byte	$49
	.byte	$0D
	.byte	$00
	.byte	$00
	.byte	$0E
	.byte	$4A
	.byte	$00
	.byte	$00
	.byte	$4B
	.byte	$0F
	.byte	$4C
	.byte	$00
	.byte	$44
	.byte	$4D
	.byte	$4D
	.byte	$4E
	.byte	$4F
	.byte	$50
	.byte	$51
	.byte	$52
	.byte	$53
	.byte	$54
	.byte	$55
	.byte	$56
	.byte	$57
	.byte	$58
	.byte	$59
	.byte	$5A
	.byte	$5B
	.byte	$5C
	.byte	$00
	.byte	$5D
	.byte	$5E
	.byte	$5F
	.byte	$60
	.byte	$61
	.byte	$62
	.byte	$63
	.byte	$64
	.byte	$65
	.byte	$66
	.byte	$67
	.byte	$68
	.byte	$69
	.byte	$6A
	.byte	$6B
	.byte	$62
	.byte	$6C
	.byte	$6D
	.byte	$6E
	.byte	$6F
	.byte	$70
	.byte	$71
	.byte	$72
	.byte	$73
	.byte	$74
	.byte	$75
	.byte	$76
	.byte	$77
	.byte	$78
	.byte	$79
	.byte	$7A
	.byte	$00
	.byte	$7B
	.byte	$7C
	.byte	$7D
	.byte	$7E
	.byte	$7F
	.byte	$80
	.byte	$81
	.byte	$81
	.byte	$81
	.byte	$75
	.byte	$82
	.byte	$83
	.byte	$84
	.byte	$85
	.byte	$85
	.byte	$86
	.byte	$87
	.byte	$88
	.byte	$89
	.byte	$8A
	.byte	$5E
	.byte	$62
	.byte	$8B
	.byte	$8C
	.byte	$8D
	.byte	$8E
	.byte	$88
	.byte	$8F
	.byte	$74
	.byte	$90
	.byte	$00
	.byte	$00
	.byte	$00
	.byte	$91
	.byte	$8F
	.byte	$8F
	.byte	$92
	.byte	$93
	.byte	$94
	.byte	$95
	.byte	$8F
	.byte	$8F
	.byte	$96
	.byte	$97
	.byte	$98
	.byte	$99
	.byte	$9A
	.byte	$75
	.byte	$9B
	.byte	$9C
	.byte	$9D
	.byte	$9E
	.byte	$8F
	.byte	$9F
	.byte	$8F
	.byte	$8F
	.byte	$A0
	.byte	$A1
	.byte	$A2
	.byte	$A3
	.byte	$A4
	.byte	$04
	.byte	$A5
	.byte	$A6
	.byte	$A7
	.byte	$A6
	.byte	$A8
	.byte	$A9
	.byte	$AA
	.byte	$AB
	.byte	$AC
	.byte	$8F
	.byte	$AD
	.byte	$AE
	.byte	$AF
	.byte	$8F
	.byte	$74
	.byte	$B0
	.byte	$8F
	.byte	$B1
	.byte	$B2
	.byte	$B3
	.byte	$B4
	.byte	$B5
	.byte	$B6
	.byte	$5E
	.byte	$B7
	.byte	$B8
	.byte	$B9
	.byte	$8A
	.byte	$BA
	.byte	$BB
	.byte	$BC
	.byte	$BD
	.byte	$18
	.byte	$BE
	.byte	$00
	.byte	$BF
	.byte	$C0
	.byte	$C1
	.byte	$C2
	.byte	$C3
	.byte	$C4
	.byte	$8F
	.byte	$C5
	.byte	$C6
	.byte	$C7
	.byte	$88
	.byte	$C8
	.byte	$88
	.byte	$8F
	.byte	$8F
	.byte	$8F
	.byte	$8F
	.byte	$74
	.byte	$8F
	.byte	$C9
	.byte	$CA
	.byte	$CB
	.byte	$CC
	.byte	$CD
	.byte	$CE
	.byte	$CF
	.byte	$D0
	.byte	$D1
	.byte	$D2
	.byte	$D3
	.byte	$6B
	.byte	$6B
	.byte	$D4
	.byte	$D5
	.byte	$D6
	.byte	$D7
	.byte	$D8
	.byte	$D9
	.byte	$DA
	.byte	$DB
	.byte	$DC
	.byte	$DD
	.byte	$75
	.byte	$DE
	.byte	$5E
	.byte	$8F
	.byte	$8F
	.byte	$8F
	.byte	$8F
	.byte	$8F
	.byte	$8F
	.byte	$8F
	.byte	$DF
	.byte	$E0
	.byte	$E1
	.byte	$E2
	.byte	$E3
	.byte	$E4
	.byte	$0B
	.byte	$01
	.byte	$E5
	.byte	$E6
	.byte	$E7
	.byte	$E8
	.byte	$E9
	.byte	$EA
	.byte	$EB
	.byte	$EC
	.byte	$ED
	.byte	$EE
	.byte	$8F
	.byte	$8F
	.byte	$8F
	.byte	$8F
	.byte	$8F
	.byte	$8F
	.byte	$8F
	.byte	$8F
	.byte	$8F
	.byte	$8F
	.byte	$8F
	.byte	$8F
	.byte	$8F
	.byte	$8F
	.byte	$8F
	.byte	$EF
	.byte	$8F
	.byte	$F0
	.byte	$F1
	.byte	$F2
	.byte	$F3
	.byte	$F4
	.byte	$F5
	.byte	$F6
	.byte	$40
	.byte	$00
	.byte	$0E
	.byte	$F7
	.byte	$F8
	.byte	$F9
	.byte	$FA
	.byte	$FB
	.byte	$8F
	.byte	$8F
	.byte	$8F
	.byte	$8F
	.byte	$8F
	.byte	$8F
	.byte	$8F
	.byte	$8F
	.byte	$8F
	.byte	$FC
	.byte	$FC
	.byte	$FC
	.byte	$FC
	.byte	$FC
	.byte	$FC
	.byte	$FC
	.byte	$FC
	.byte	$FC
	.byte	$FC
	.byte	$FC
	.byte	$FC
	.byte	$FC
	.byte	$FD
	.byte	$FD
	.byte	$FD
	.byte	$FE
	.byte	$FD
	.byte	$FC
	.byte	$FC
	.byte	$FC
	.byte	$FE
	.byte	$FC
	.byte	$FC
	.byte	$FC
	.byte	$FC
	.byte	$FC
	.byte	$FC
	.byte	$FC
	.byte	$FC
	.byte	$FC
	.byte	$FC
	.byte	$FF
	.byte	$FF
	.byte	$FF
	.byte	$FF
	.byte	$FF
	.byte	$FF
	.byte	$FF
	.byte	$FF
	.byte	$FF
	.byte	$FF
	.byte	$FF
	.byte	$FF
	.byte	$FF
	.byte	$FF
	.byte	$FF
	.byte	$FF
	.byte	$FF
	.byte	$FF
	.byte	$FF
	.byte	$FF
	.byte	$FF
	.byte	$FF
	.byte	$FF
	.byte	$FF
	.byte	$FF
	.byte	$FF
	.byte	$FF
	.byte	$FF
	.byte	$FF
	.byte	$FF
	.byte	$FF
	.byte	$FF
	.byte	$FF
	.byte	$FF
	.byte	$FF
	.byte	$FF
	.byte	$FF
	.byte	$FF
	.byte	$FF
	.byte	$FF
	.byte	$FF
	.byte	$FF
	.byte	$FF
	.byte	$FF
	.byte	$FF
	.byte	$FF
	.byte	$FF
	.byte	$FF
	.byte	$FF
	.byte	$FF
	.byte	$FF
	.byte	$FF
	.byte	$FF
	.byte	$FF
	.byte	$FF
	.byte	$FF
	.byte	$FF
	.byte	$FF
	.byte	$FF
	.byte	$FF
	.byte	$FF
	.byte	$FF
	.byte	$FF
	.byte	$FF
	.byte	$FF
	.byte	$FF
	.byte	$FF
	.byte	$FF
	.byte	$FF
	.byte	$FF
	.byte	$FF
	.byte	$FF
	.byte	$FF
	.byte	$FF
	.byte	$FF
	.byte	$FF
	.byte	$FF
	.byte	$FF
	.byte	$FF
	.byte	$FF
	.byte	$FF
	.byte	$FF
	.byte	$FF
	.byte	$FF
	.byte	$FF
	.byte	$FF
	.byte	$FF
	.byte	$FF
	.byte	$FF
	.byte	$FF
	.byte	$FF
	.byte	$FF
	.byte	$FF
	.byte	$FF
	.byte	$FF
	.byte	$FF
	.byte	$FF
	.byte	$FF
	.byte	$FF
	.byte	$FF
	.byte	$FF
	.byte	$FF
	.byte	$FF
	.byte	$FF
	.byte	$FF
	.byte	$FF
	.byte	$FF
	.byte	$FF
	.byte	$FF
	.byte	$FF
	.byte	$FF
	.byte	$FF
	.byte	$FF
	.byte	$FF
	.byte	$FF
	.byte	$FF
	.byte	$FF
	.byte	$FF
	.byte	$FF
	.byte	$FF
	.byte	$FF
	.byte	$FF
	.byte	$FF
	.byte	$FF
	.byte	$FF
	.byte	$FF
	.byte	$FF
	.byte	$FF
	.byte	$FF
	.byte	$FF
	.byte	$FF
	.byte	$FF
	.byte	$FF
	.byte	$FF
	.byte	$FF
	.byte	$FF
	.byte	$FF
	.byte	$FF
	.byte	$FF
	.byte	$FF
	.byte	$FF
	.byte	$FF
	.byte	$FF
	.byte	$FF
	.byte	$FF
	.byte	$FF
	.byte	$FF
	.byte	$FF
	.byte	$FF
	.byte	$FF
	.byte	$FF
	.byte	$FF
	.byte	$FF
	.byte	$FF
	.byte	$FF
	.byte	$FF
	.byte	$FF
	.byte	$FF
	.byte	$FF
	.byte	$FF
	.byte	$FF
	.byte	$FF
	.byte	$FF
	.byte	$FF
	.byte	$FF
	.byte	$FF
	.byte	$FF
	.byte	$FF
	.byte	$FF
	.byte	$FF
	.byte	$FF
	.byte	$FF
	.byte	$FF
	.byte	$FF
	.byte	$FF
	.byte	$FF
	.byte	$FF
	.byte	$FF
	.byte	$FF
	.byte	$FF
	.byte	$FF
	.byte	$FF
	.byte	$FF
	.byte	$FF
	.byte	$FF
	.byte	$FF
	.byte	$FF
	.byte	$FF
	.byte	$FF
	.byte	$FF
	.byte	$FF
	.byte	$FF
	.byte	$FF
	.byte	$FF
	.byte	$FF
	.byte	$FF
	.byte	$FF
	.byte	$FF
	.byte	$FF
	.byte	$FF
	.byte	$FF
	.byte	$FF
	.byte	$FF
	.byte	$FF
	.byte	$FF
	.byte	$FF
	.byte	$FF
	.byte	$FF
	.byte	$FF
	.byte	$FF
	.byte	$FF
	.byte	$FF
	.byte	$FF
	.byte	$FF
	.byte	$FF
	.byte	$FF
	.byte	$FF
	.byte	$FF
	.byte	$FF
	.byte	$FF
	.byte	$FF
	.byte	$FF
	.byte	$FF
	.byte	$FF
	.byte	$FF
	.byte	$FF
	.byte	$FF
	.byte	$FF
	.byte	$FF
	.byte	$FF
	.byte	$FF
	.byte	$FF
	.byte	$FF
	.byte	$FF
	.byte	$FF
	.byte	$FF
	.byte	$FF
	.byte	$FF
	.byte	$FF
	.byte	$FF
	.byte	$FF
	.byte	$FF
	.byte	$FF
	.byte	$FF
	.byte	$FF
	.byte	$FF
	.byte	$FF
	.byte	$FF
	.byte	$FF
	.byte	$FF
	.byte	$FF
	.byte	$FF
	.byte	$FF
	.byte	$FF
	.byte	$FF
	.byte	$FF
	.byte	$FF
	.byte	$FF
	.byte	$FF
	.byte	$FF
	.byte	$FF
	.byte	$FF
	.byte	$FF
	.byte	$FF
	.byte	$FF
	.byte	$FF
	.byte	$FF
	.byte	$FF
	.byte	$FF
	.byte	$FF
	.byte	$FF
	.byte	$FF
	.byte	$FF
	.byte	$FF
	.byte	$FF
	.byte	$FF
	.byte	$FF
	.byte	$FF
	.byte	$FF
	.byte	$FF
	.byte	$FF
	.byte	$FF
	.byte	$FF
	.byte	$FF
	.byte	$FF
	.byte	$FF
	.byte	$FF
	.byte	$FF
	.byte	$FF
	.byte	$FF
	.byte	$FF
	.byte	$FF
	.byte	$FF
	.byte	$FF
	.byte	$FF
	.byte	$FF
	.byte	$FF
	.byte	$FF
	.byte	$FF
	.byte	$FF
	.byte	$FF
	.byte	$FF
	.byte	$FF
	.byte	$FF
	.byte	$FF
	.byte	$FF
	.byte	$FF
	.byte	$FF
	.byte	$FF
	.byte	$FF
	.byte	$FF
	.byte	$FF
	.byte	$FF
	.byte	$FF
	.byte	$FF
	.byte	$FF
	.byte	$FF
	.byte	$FF
	.byte	$FF
	.byte	$FF
	.byte	$FF
	.byte	$FF
	.byte	$FF
	.byte	$FF
	.byte	$FF
	.byte	$FF
	.byte	$FF
	.byte	$FF
	.byte	$FF
	.byte	$FF
	.byte	$FF
	.byte	$FF
	.byte	$FF
	.byte	$FF
	.byte	$FF
	.byte	$FF
	.byte	$FF
	.byte	$FF
	.byte	$FF
	.byte	$FF
	.byte	$FF
	.byte	$FF
	.byte	$FF
	.byte	$FF
	.byte	$FF
	.byte	$FF
	.byte	$FF
	.byte	$FF
	.byte	$FF
	.byte	$FF
	.byte	$FF
	.byte	$FF
	.byte	$00
	.byte	$00
	.byte	$00
	.byte	$00
	.byte	$00
	.byte	$00
	.byte	$00
	.byte	$00
	.byte	$00
	.byte	$00
	.byte	$00
	.byte	$00
	.byte	$00
	.byte	$00
	.byte	$00
	.byte	$00
	.byte	$00
	.byte	$00
	.byte	$00
	.byte	$00
	.byte	$00
	.byte	$00
	.byte	$00
	.byte	$00
	.byte	$00
	.byte	$00
	.byte	$00
	.byte	$00
	.byte	$00
	.byte	$00
	.byte	$00
	.byte	$00
	.byte	$00
	.byte	$00
	.byte	$00
	.byte	$00
	.byte	$00
	.byte	$00
	.byte	$00
	.byte	$00
	.byte	$00
	.byte	$00
	.byte	$00
	.byte	$00
	.byte	$00
	.byte	$00
	.byte	$00
	.byte	$00
	.byte	$00
	.byte	$00
	.byte	$00
	.byte	$00
	.byte	$00
	.byte	$00
	.byte	$00
	.byte	$00
	.byte	$00
	.byte	$00
	.byte	$00
	.byte	$00
	.byte	$00
	.byte	$00
	.byte	$00
	.byte	$00
_desert:
	.byte	$AC
	.byte	$00
	.byte	$AC
	.byte	$FE
	.byte	$00
	.byte	$AC
	.byte	$07
	.byte	$01
	.byte	$02
	.byte	$03
	.byte	$04
	.byte	$05
	.byte	$06
	.byte	$07
	.byte	$00
	.byte	$AC
	.byte	$11
	.byte	$08
	.byte	$09
	.byte	$0A
	.byte	$0B
	.byte	$0C
	.byte	$0D
	.byte	$0E
	.byte	$0F
	.byte	$AC
	.byte	$02
	.byte	$10
	.byte	$11
	.byte	$12
	.byte	$13
	.byte	$14
	.byte	$15
	.byte	$52
	.byte	$53
	.byte	$54
	.byte	$55
	.byte	$56
	.byte	$57
	.byte	$58
	.byte	$59
	.byte	$5A
	.byte	$5B
	.byte	$5C
	.byte	$5D
	.byte	$07
	.byte	$00
	.byte	$AC
	.byte	$02
	.byte	$16
	.byte	$17
	.byte	$18
	.byte	$19
	.byte	$1A
	.byte	$1B
	.byte	$1C
	.byte	$1D
	.byte	$1E
	.byte	$1F
	.byte	$20
	.byte	$12
	.byte	$AC
	.byte	$03
	.byte	$21
	.byte	$5E
	.byte	$5F
	.byte	$0F
	.byte	$0F
	.byte	$60
	.byte	$61
	.byte	$0F
	.byte	$3E
	.byte	$62
	.byte	$63
	.byte	$34
	.byte	$AC
	.byte	$02
	.byte	$64
	.byte	$65
	.byte	$66
	.byte	$0F
	.byte	$AC
	.byte	$05
	.byte	$22
	.byte	$23
	.byte	$24
	.byte	$25
	.byte	$26
	.byte	$27
	.byte	$12
	.byte	$28
	.byte	$29
	.byte	$12
	.byte	$AC
	.byte	$02
	.byte	$67
	.byte	$68
	.byte	$69
	.byte	$6A
	.byte	$6B
	.byte	$6C
	.byte	$6D
	.byte	$0F
	.byte	$AC
	.byte	$06
	.byte	$2A
	.byte	$2B
	.byte	$2C
	.byte	$2D
	.byte	$1D
	.byte	$2E
	.byte	$2F
	.byte	$0F
	.byte	$AC
	.byte	$05
	.byte	$30
	.byte	$31
	.byte	$32
	.byte	$26
	.byte	$6E
	.byte	$6F
	.byte	$70
	.byte	$71
	.byte	$72
	.byte	$12
	.byte	$12
	.byte	$73
	.byte	$74
	.byte	$AC
	.byte	$02
	.byte	$75
	.byte	$76
	.byte	$77
	.byte	$78
	.byte	$0F
	.byte	$33
	.byte	$34
	.byte	$35
	.byte	$36
	.byte	$AC
	.byte	$02
	.byte	$37
	.byte	$38
	.byte	$39
	.byte	$3A
	.byte	$3B
	.byte	$2F
	.byte	$0F
	.byte	$AC
	.byte	$04
	.byte	$79
	.byte	$7A
	.byte	$7B
	.byte	$7C
	.byte	$7D
	.byte	$12
	.byte	$7E
	.byte	$7F
	.byte	$80
	.byte	$81
	.byte	$82
	.byte	$83
	.byte	$84
	.byte	$0F
	.byte	$AC
	.byte	$02
	.byte	$3C
	.byte	$3D
	.byte	$3E
	.byte	$3F
	.byte	$40
	.byte	$41
	.byte	$0F
	.byte	$42
	.byte	$43
	.byte	$12
	.byte	$44
	.byte	$45
	.byte	$46
	.byte	$47
	.byte	$85
	.byte	$86
	.byte	$87
	.byte	$88
	.byte	$89
	.byte	$8A
	.byte	$26
	.byte	$8B
	.byte	$8C
	.byte	$8D
	.byte	$8E
	.byte	$8F
	.byte	$0F
	.byte	$0F
	.byte	$90
	.byte	$91
	.byte	$48
	.byte	$49
	.byte	$0F
	.byte	$4A
	.byte	$4B
	.byte	$4C
	.byte	$0F
	.byte	$AC
	.byte	$02
	.byte	$4D
	.byte	$4E
	.byte	$4F
	.byte	$50
	.byte	$51
	.byte	$36
	.byte	$AC
	.byte	$04
	.byte	$92
	.byte	$93
	.byte	$0F
	.byte	$AC
	.byte	$07
	.byte	$94
	.byte	$43
	.byte	$12
	.byte	$0F
	.byte	$60
	.byte	$95
	.byte	$43
	.byte	$12
	.byte	$73
	.byte	$96
	.byte	$97
	.byte	$98
	.byte	$0F
	.byte	$AC
	.byte	$12
	.byte	$A4
	.byte	$A5
	.byte	$12
	.byte	$12
	.byte	$99
	.byte	$9A
	.byte	$12
	.byte	$AC
	.byte	$06
	.byte	$9B
	.byte	$9C
	.byte	$9D
	.byte	$9E
	.byte	$9F
	.byte	$A0
	.byte	$A1
	.byte	$0F
	.byte	$AC
	.byte	$09
	.byte	$A6
	.byte	$A7
	.byte	$A5
	.byte	$12
	.byte	$AC
	.byte	$02
	.byte	$A2
	.byte	$AC
	.byte	$11
	.byte	$A8
	.byte	$A9
	.byte	$AC
	.byte	$05
	.byte	$AA
	.byte	$AB
	.byte	$A2
	.byte	$AC
	.byte	$04
	.byte	$A3
	.byte	$AC
	.byte	$FE
	.byte	$A3
	.byte	$AC
	.byte	$60
	.byte	$00
	.byte	$AC
	.byte	$3E
	.byte	$00
	.byte	$AC
	.byte	$00
_lightInDesert:
	.byte	$00
	.byte	$00
	.byte	$00
	.byte	$00
	.byte	$00
	.byte	$00
	.byte	$00
	.byte	$00
	.byte	$00
	.byte	$00
	.byte	$00
	.byte	$00
	.byte	$01
	.byte	$02
	.byte	$02
	.byte	$02
	.byte	$02
	.byte	$02
	.byte	$61
	.byte	$62
	.byte	$00
	.byte	$00
	.byte	$00
	.byte	$00
	.byte	$00
	.byte	$00
	.byte	$00
	.byte	$00
	.byte	$00
	.byte	$00
	.byte	$00
	.byte	$00
	.byte	$00
	.byte	$00
	.byte	$00
	.byte	$00
	.byte	$00
	.byte	$00
	.byte	$00
	.byte	$00
	.byte	$00
	.byte	$00
	.byte	$00
	.byte	$00
	.byte	$03
	.byte	$02
	.byte	$02
	.byte	$02
	.byte	$02
	.byte	$02
	.byte	$02
	.byte	$63
	.byte	$00
	.byte	$00
	.byte	$00
	.byte	$00
	.byte	$00
	.byte	$00
	.byte	$00
	.byte	$00
	.byte	$00
	.byte	$00
	.byte	$00
	.byte	$00
	.byte	$00
	.byte	$00
	.byte	$00
	.byte	$00
	.byte	$00
	.byte	$00
	.byte	$00
	.byte	$00
	.byte	$00
	.byte	$00
	.byte	$00
	.byte	$00
	.byte	$04
	.byte	$02
	.byte	$02
	.byte	$02
	.byte	$02
	.byte	$02
	.byte	$02
	.byte	$64
	.byte	$00
	.byte	$00
	.byte	$00
	.byte	$00
	.byte	$00
	.byte	$00
	.byte	$00
	.byte	$00
	.byte	$00
	.byte	$00
	.byte	$00
	.byte	$00
	.byte	$00
	.byte	$00
	.byte	$00
	.byte	$00
	.byte	$00
	.byte	$00
	.byte	$00
	.byte	$00
	.byte	$00
	.byte	$00
	.byte	$00
	.byte	$05
	.byte	$04
	.byte	$02
	.byte	$02
	.byte	$02
	.byte	$02
	.byte	$02
	.byte	$02
	.byte	$65
	.byte	$00
	.byte	$00
	.byte	$00
	.byte	$00
	.byte	$00
	.byte	$00
	.byte	$00
	.byte	$00
	.byte	$00
	.byte	$00
	.byte	$00
	.byte	$00
	.byte	$00
	.byte	$00
	.byte	$00
	.byte	$00
	.byte	$00
	.byte	$00
	.byte	$00
	.byte	$00
	.byte	$00
	.byte	$00
	.byte	$00
	.byte	$06
	.byte	$07
	.byte	$02
	.byte	$02
	.byte	$02
	.byte	$02
	.byte	$02
	.byte	$02
	.byte	$66
	.byte	$00
	.byte	$00
	.byte	$00
	.byte	$00
	.byte	$00
	.byte	$00
	.byte	$00
	.byte	$00
	.byte	$00
	.byte	$00
	.byte	$00
	.byte	$00
	.byte	$00
	.byte	$00
	.byte	$00
	.byte	$00
	.byte	$00
	.byte	$00
	.byte	$00
	.byte	$00
	.byte	$00
	.byte	$08
	.byte	$09
	.byte	$0A
	.byte	$02
	.byte	$02
	.byte	$02
	.byte	$02
	.byte	$02
	.byte	$02
	.byte	$02
	.byte	$67
	.byte	$68
	.byte	$69
	.byte	$6A
	.byte	$00
	.byte	$00
	.byte	$00
	.byte	$00
	.byte	$00
	.byte	$00
	.byte	$00
	.byte	$00
	.byte	$00
	.byte	$00
	.byte	$00
	.byte	$00
	.byte	$00
	.byte	$00
	.byte	$00
	.byte	$00
	.byte	$00
	.byte	$00
	.byte	$00
	.byte	$0B
	.byte	$02
	.byte	$02
	.byte	$02
	.byte	$02
	.byte	$02
	.byte	$02
	.byte	$02
	.byte	$02
	.byte	$02
	.byte	$02
	.byte	$6B
	.byte	$6C
	.byte	$00
	.byte	$00
	.byte	$00
	.byte	$00
	.byte	$00
	.byte	$00
	.byte	$00
	.byte	$00
	.byte	$00
	.byte	$00
	.byte	$00
	.byte	$00
	.byte	$00
	.byte	$00
	.byte	$00
	.byte	$00
	.byte	$00
	.byte	$00
	.byte	$00
	.byte	$0C
	.byte	$02
	.byte	$02
	.byte	$02
	.byte	$02
	.byte	$02
	.byte	$02
	.byte	$02
	.byte	$02
	.byte	$02
	.byte	$02
	.byte	$6D
	.byte	$00
	.byte	$00
	.byte	$00
	.byte	$00
	.byte	$00
	.byte	$00
	.byte	$00
	.byte	$00
	.byte	$00
	.byte	$00
	.byte	$00
	.byte	$00
	.byte	$00
	.byte	$00
	.byte	$00
	.byte	$00
	.byte	$00
	.byte	$0D
	.byte	$0E
	.byte	$0F
	.byte	$10
	.byte	$11
	.byte	$12
	.byte	$13
	.byte	$14
	.byte	$15
	.byte	$6E
	.byte	$6F
	.byte	$02
	.byte	$02
	.byte	$02
	.byte	$02
	.byte	$70
	.byte	$00
	.byte	$00
	.byte	$00
	.byte	$00
	.byte	$00
	.byte	$00
	.byte	$00
	.byte	$00
	.byte	$00
	.byte	$16
	.byte	$17
	.byte	$18
	.byte	$19
	.byte	$1A
	.byte	$1B
	.byte	$1C
	.byte	$1D
	.byte	$1E
	.byte	$1F
	.byte	$20
	.byte	$21
	.byte	$00
	.byte	$22
	.byte	$23
	.byte	$24
	.byte	$71
	.byte	$72
	.byte	$73
	.byte	$74
	.byte	$75
	.byte	$76
	.byte	$77
	.byte	$78
	.byte	$79
	.byte	$7A
	.byte	$7B
	.byte	$7C
	.byte	$7D
	.byte	$00
	.byte	$00
	.byte	$00
	.byte	$25
	.byte	$26
	.byte	$27
	.byte	$28
	.byte	$29
	.byte	$2A
	.byte	$2B
	.byte	$2C
	.byte	$2D
	.byte	$2E
	.byte	$2F
	.byte	$00
	.byte	$00
	.byte	$00
	.byte	$00
	.byte	$30
	.byte	$7E
	.byte	$7F
	.byte	$80
	.byte	$02
	.byte	$81
	.byte	$82
	.byte	$02
	.byte	$02
	.byte	$02
	.byte	$83
	.byte	$84
	.byte	$85
	.byte	$86
	.byte	$87
	.byte	$88
	.byte	$89
	.byte	$31
	.byte	$1F
	.byte	$1F
	.byte	$1F
	.byte	$1F
	.byte	$1F
	.byte	$32
	.byte	$33
	.byte	$34
	.byte	$35
	.byte	$36
	.byte	$00
	.byte	$00
	.byte	$00
	.byte	$37
	.byte	$00
	.byte	$00
	.byte	$00
	.byte	$8A
	.byte	$8B
	.byte	$8C
	.byte	$8D
	.byte	$8E
	.byte	$8F
	.byte	$90
	.byte	$91
	.byte	$92
	.byte	$93
	.byte	$94
	.byte	$95
	.byte	$96
	.byte	$1F
	.byte	$38
	.byte	$39
	.byte	$3A
	.byte	$3B
	.byte	$3C
	.byte	$3D
	.byte	$3E
	.byte	$1F
	.byte	$1F
	.byte	$1F
	.byte	$1F
	.byte	$3F
	.byte	$40
	.byte	$41
	.byte	$42
	.byte	$43
	.byte	$97
	.byte	$00
	.byte	$98
	.byte	$99
	.byte	$9A
	.byte	$00
	.byte	$00
	.byte	$00
	.byte	$9B
	.byte	$9C
	.byte	$9C
	.byte	$9C
	.byte	$9D
	.byte	$9E
	.byte	$9F
	.byte	$A0
	.byte	$31
	.byte	$44
	.byte	$45
	.byte	$46
	.byte	$47
	.byte	$47
	.byte	$47
	.byte	$48
	.byte	$49
	.byte	$4A
	.byte	$4B
	.byte	$4C
	.byte	$3E
	.byte	$1F
	.byte	$1F
	.byte	$1F
	.byte	$1F
	.byte	$A1
	.byte	$A2
	.byte	$A3
	.byte	$A4
	.byte	$A5
	.byte	$A6
	.byte	$00
	.byte	$A7
	.byte	$A8
	.byte	$A9
	.byte	$AA
	.byte	$AB
	.byte	$AC
	.byte	$AD
	.byte	$1F
	.byte	$31
	.byte	$1F
	.byte	$4D
	.byte	$4E
	.byte	$4F
	.byte	$50
	.byte	$51
	.byte	$40
	.byte	$52
	.byte	$53
	.byte	$54
	.byte	$00
	.byte	$00
	.byte	$55
	.byte	$56
	.byte	$57
	.byte	$AE
	.byte	$AF
	.byte	$B0
	.byte	$B1
	.byte	$B2
	.byte	$00
	.byte	$B3
	.byte	$B4
	.byte	$B5
	.byte	$B6
	.byte	$B7
	.byte	$B8
	.byte	$1F
	.byte	$1F
	.byte	$B9
	.byte	$BA
	.byte	$58
	.byte	$59
	.byte	$1F
	.byte	$5A
	.byte	$5B
	.byte	$5C
	.byte	$1F
	.byte	$1F
	.byte	$1F
	.byte	$5D
	.byte	$5E
	.byte	$5F
	.byte	$60
	.byte	$3F
	.byte	$47
	.byte	$47
	.byte	$47
	.byte	$47
	.byte	$47
	.byte	$BB
	.byte	$BC
	.byte	$BD
	.byte	$1F
	.byte	$1F
	.byte	$1F
	.byte	$1F
	.byte	$1F
	.byte	$1F
	.byte	$1F
	.byte	$BE
	.byte	$BF
	.byte	$00
	.byte	$1F
	.byte	$1F
	.byte	$C0
	.byte	$54
	.byte	$00
	.byte	$00
	.byte	$C1
	.byte	$C2
	.byte	$C3
	.byte	$1F
	.byte	$1F
	.byte	$1F
	.byte	$1F
	.byte	$1F
	.byte	$1F
	.byte	$1F
	.byte	$1F
	.byte	$1F
	.byte	$1F
	.byte	$1F
	.byte	$1F
	.byte	$1F
	.byte	$1F
	.byte	$1F
	.byte	$1F
	.byte	$1F
	.byte	$1F
	.byte	$1F
	.byte	$CF
	.byte	$00
	.byte	$00
	.byte	$00
	.byte	$C4
	.byte	$C5
	.byte	$00
	.byte	$00
	.byte	$00
	.byte	$00
	.byte	$00
	.byte	$00
	.byte	$00
	.byte	$C6
	.byte	$C7
	.byte	$C8
	.byte	$C9
	.byte	$CA
	.byte	$CB
	.byte	$CC
	.byte	$1F
	.byte	$1F
	.byte	$1F
	.byte	$1F
	.byte	$1F
	.byte	$1F
	.byte	$1F
	.byte	$1F
	.byte	$1F
	.byte	$1F
	.byte	$D0
	.byte	$D1
	.byte	$00
	.byte	$00
	.byte	$00
	.byte	$00
	.byte	$CD
	.byte	$CD
	.byte	$CD
	.byte	$CD
	.byte	$CD
	.byte	$CD
	.byte	$CD
	.byte	$CD
	.byte	$CD
	.byte	$CD
	.byte	$CD
	.byte	$CD
	.byte	$CD
	.byte	$CD
	.byte	$CD
	.byte	$CD
	.byte	$CD
	.byte	$CD
	.byte	$CD
	.byte	$CD
	.byte	$CD
	.byte	$CD
	.byte	$CD
	.byte	$CD
	.byte	$CD
	.byte	$CD
	.byte	$CD
	.byte	$CD
	.byte	$CD
	.byte	$CD
	.byte	$CD
	.byte	$CD
	.byte	$CE
	.byte	$CE
	.byte	$CE
	.byte	$CE
	.byte	$CE
	.byte	$CE
	.byte	$CE
	.byte	$CE
	.byte	$CE
	.byte	$CE
	.byte	$CE
	.byte	$CE
	.byte	$CE
	.byte	$CE
	.byte	$CE
	.byte	$CE
	.byte	$CE
	.byte	$CE
	.byte	$CE
	.byte	$CE
	.byte	$CE
	.byte	$CE
	.byte	$CE
	.byte	$CE
	.byte	$CE
	.byte	$CE
	.byte	$CE
	.byte	$CE
	.byte	$CE
	.byte	$CE
	.byte	$CE
	.byte	$CE
	.byte	$CE
	.byte	$CE
	.byte	$CE
	.byte	$CE
	.byte	$CE
	.byte	$CE
	.byte	$CE
	.byte	$CE
	.byte	$CE
	.byte	$CE
	.byte	$CE
	.byte	$CE
	.byte	$CE
	.byte	$CE
	.byte	$CE
	.byte	$CE
	.byte	$CE
	.byte	$CE
	.byte	$CE
	.byte	$CE
	.byte	$CE
	.byte	$CE
	.byte	$CE
	.byte	$CE
	.byte	$CE
	.byte	$CE
	.byte	$CE
	.byte	$CE
	.byte	$CE
	.byte	$CE
	.byte	$CE
	.byte	$CE
	.byte	$CE
	.byte	$CE
	.byte	$CE
	.byte	$CE
	.byte	$CE
	.byte	$CE
	.byte	$CE
	.byte	$CE
	.byte	$CE
	.byte	$CE
	.byte	$CE
	.byte	$CE
	.byte	$CE
	.byte	$CE
	.byte	$CE
	.byte	$CE
	.byte	$CE
	.byte	$CE
	.byte	$CE
	.byte	$CE
	.byte	$CE
	.byte	$CE
	.byte	$CE
	.byte	$CE
	.byte	$CE
	.byte	$CE
	.byte	$CE
	.byte	$CE
	.byte	$CE
	.byte	$CE
	.byte	$CE
	.byte	$CE
	.byte	$CE
	.byte	$CE
	.byte	$CE
	.byte	$CE
	.byte	$CE
	.byte	$CE
	.byte	$CE
	.byte	$CE
	.byte	$CE
	.byte	$CE
	.byte	$CE
	.byte	$CE
	.byte	$CE
	.byte	$CE
	.byte	$CE
	.byte	$CE
	.byte	$CE
	.byte	$CE
	.byte	$CE
	.byte	$CE
	.byte	$CE
	.byte	$CE
	.byte	$CE
	.byte	$CE
	.byte	$CE
	.byte	$CE
	.byte	$CE
	.byte	$CE
	.byte	$CE
	.byte	$CE
	.byte	$CE
	.byte	$CE
	.byte	$CE
	.byte	$CE
	.byte	$CE
	.byte	$CE
	.byte	$CE
	.byte	$CE
	.byte	$CE
	.byte	$CE
	.byte	$CE
	.byte	$CE
	.byte	$CE
	.byte	$CE
	.byte	$CE
	.byte	$CE
	.byte	$CE
	.byte	$CE
	.byte	$CE
	.byte	$CE
	.byte	$CE
	.byte	$CE
	.byte	$CE
	.byte	$CE
	.byte	$CE
	.byte	$CE
	.byte	$CE
	.byte	$CE
	.byte	$CE
	.byte	$CE
	.byte	$CE
	.byte	$CE
	.byte	$CE
	.byte	$CE
	.byte	$CE
	.byte	$CE
	.byte	$CE
	.byte	$CE
	.byte	$CE
	.byte	$CE
	.byte	$CE
	.byte	$CE
	.byte	$CE
	.byte	$CE
	.byte	$CE
	.byte	$CE
	.byte	$CE
	.byte	$CE
	.byte	$CE
	.byte	$CE
	.byte	$CE
	.byte	$CE
	.byte	$CE
	.byte	$CE
	.byte	$CE
	.byte	$CE
	.byte	$CE
	.byte	$CE
	.byte	$CE
	.byte	$CE
	.byte	$CE
	.byte	$CE
	.byte	$CE
	.byte	$CE
	.byte	$CE
	.byte	$CE
	.byte	$CE
	.byte	$CE
	.byte	$CE
	.byte	$CE
	.byte	$CE
	.byte	$CE
	.byte	$CE
	.byte	$CE
	.byte	$CE
	.byte	$CE
	.byte	$CE
	.byte	$CE
	.byte	$CE
	.byte	$CE
	.byte	$CE
	.byte	$CE
	.byte	$CE
	.byte	$CE
	.byte	$CE
	.byte	$CE
	.byte	$CE
	.byte	$CE
	.byte	$CE
	.byte	$CE
	.byte	$CE
	.byte	$CE
	.byte	$CE
	.byte	$CE
	.byte	$CE
	.byte	$CE
	.byte	$CE
	.byte	$CE
	.byte	$CE
	.byte	$CE
	.byte	$CE
	.byte	$CE
	.byte	$CE
	.byte	$CE
	.byte	$CE
	.byte	$CE
	.byte	$CE
	.byte	$CE
	.byte	$CE
	.byte	$CE
	.byte	$CE
	.byte	$CE
	.byte	$CE
	.byte	$CE
	.byte	$CE
	.byte	$CE
	.byte	$CE
	.byte	$CE
	.byte	$CE
	.byte	$CE
	.byte	$CE
	.byte	$CE
	.byte	$CE
	.byte	$CE
	.byte	$CE
	.byte	$CE
	.byte	$CE
	.byte	$CE
	.byte	$CE
	.byte	$CE
	.byte	$CE
	.byte	$CE
	.byte	$CE
	.byte	$CE
	.byte	$CE
	.byte	$CE
	.byte	$CE
	.byte	$CE
	.byte	$CE
	.byte	$CE
	.byte	$CE
	.byte	$CE
	.byte	$CE
	.byte	$CE
	.byte	$CE
	.byte	$CE
	.byte	$CE
	.byte	$CE
	.byte	$CE
	.byte	$CE
	.byte	$CE
	.byte	$CE
	.byte	$CE
	.byte	$CE
	.byte	$CE
	.byte	$CE
	.byte	$CE
	.byte	$CE
	.byte	$CE
	.byte	$CE
	.byte	$CE
	.byte	$CE
	.byte	$CE
	.byte	$CE
	.byte	$CE
	.byte	$CE
	.byte	$CE
	.byte	$CE
	.byte	$CE
	.byte	$CE
	.byte	$CE
	.byte	$CE
	.byte	$CE
	.byte	$CE
	.byte	$CE
	.byte	$CE
	.byte	$CE
	.byte	$CE
	.byte	$CE
	.byte	$CE
	.byte	$CE
	.byte	$CE
	.byte	$CE
	.byte	$CE
	.byte	$CE
	.byte	$CE
	.byte	$CE
	.byte	$CE
	.byte	$CE
	.byte	$CE
	.byte	$CE
	.byte	$CE
	.byte	$CE
	.byte	$CE
	.byte	$CE
	.byte	$CE
	.byte	$CE
	.byte	$CE
	.byte	$CE
	.byte	$CE
	.byte	$CE
	.byte	$CE
	.byte	$CE
	.byte	$CE
	.byte	$CE
	.byte	$CE
	.byte	$CE
	.byte	$CE
	.byte	$CE
	.byte	$CE
	.byte	$CE
	.byte	$CE
	.byte	$CE
	.byte	$CE
	.byte	$CE
	.byte	$CE
	.byte	$CE
	.byte	$CE
	.byte	$CE
	.byte	$CE
	.byte	$CE
	.byte	$CE
	.byte	$CE
	.byte	$CE
	.byte	$CE
	.byte	$CE
	.byte	$00
	.byte	$00
	.byte	$00
	.byte	$00
	.byte	$00
	.byte	$00
	.byte	$00
	.byte	$00
	.byte	$00
	.byte	$00
	.byte	$00
	.byte	$00
	.byte	$00
	.byte	$00
	.byte	$00
	.byte	$00
	.byte	$00
	.byte	$00
	.byte	$00
	.byte	$00
	.byte	$00
	.byte	$00
	.byte	$00
	.byte	$00
	.byte	$00
	.byte	$00
	.byte	$00
	.byte	$00
	.byte	$00
	.byte	$00
	.byte	$00
	.byte	$00
	.byte	$00
	.byte	$00
	.byte	$00
	.byte	$00
	.byte	$00
	.byte	$00
	.byte	$00
	.byte	$00
	.byte	$00
	.byte	$00
	.byte	$00
	.byte	$00
	.byte	$00
	.byte	$00
	.byte	$00
	.byte	$00
	.byte	$00
	.byte	$00
	.byte	$00
	.byte	$00
	.byte	$00
	.byte	$00
	.byte	$00
	.byte	$00
	.byte	$00
	.byte	$00
	.byte	$00
	.byte	$00
	.byte	$00
	.byte	$00
	.byte	$00
	.byte	$00
_the3Heroes:
	.byte	$00
	.byte	$01
	.byte	$01
	.byte	$01
	.byte	$01
	.byte	$01
	.byte	$01
	.byte	$01
	.byte	$01
	.byte	$02
	.byte	$03
	.byte	$01
	.byte	$01
	.byte	$01
	.byte	$01
	.byte	$01
	.byte	$01
	.byte	$01
	.byte	$01
	.byte	$01
	.byte	$01
	.byte	$04
	.byte	$05
	.byte	$06
	.byte	$01
	.byte	$01
	.byte	$01
	.byte	$01
	.byte	$01
	.byte	$01
	.byte	$01
	.byte	$07
	.byte	$08
	.byte	$09
	.byte	$09
	.byte	$09
	.byte	$09
	.byte	$09
	.byte	$09
	.byte	$09
	.byte	$09
	.byte	$02
	.byte	$0A
	.byte	$0B
	.byte	$0C
	.byte	$0D
	.byte	$0E
	.byte	$0F
	.byte	$10
	.byte	$11
	.byte	$12
	.byte	$09
	.byte	$09
	.byte	$13
	.byte	$14
	.byte	$15
	.byte	$16
	.byte	$09
	.byte	$09
	.byte	$09
	.byte	$09
	.byte	$09
	.byte	$09
	.byte	$17
	.byte	$00
	.byte	$09
	.byte	$09
	.byte	$09
	.byte	$18
	.byte	$19
	.byte	$09
	.byte	$09
	.byte	$09
	.byte	$1A
	.byte	$1B
	.byte	$1C
	.byte	$1D
	.byte	$1E
	.byte	$1F
	.byte	$20
	.byte	$20
	.byte	$20
	.byte	$21
	.byte	$09
	.byte	$09
	.byte	$13
	.byte	$14
	.byte	$09
	.byte	$22
	.byte	$23
	.byte	$09
	.byte	$09
	.byte	$24
	.byte	$0B
	.byte	$09
	.byte	$17
	.byte	$25
	.byte	$09
	.byte	$09
	.byte	$26
	.byte	$27
	.byte	$20
	.byte	$28
	.byte	$09
	.byte	$29
	.byte	$1A
	.byte	$2A
	.byte	$2B
	.byte	$1D
	.byte	$2C
	.byte	$20
	.byte	$20
	.byte	$20
	.byte	$20
	.byte	$2D
	.byte	$09
	.byte	$09
	.byte	$13
	.byte	$14
	.byte	$09
	.byte	$2E
	.byte	$2F
	.byte	$30
	.byte	$31
	.byte	$12
	.byte	$32
	.byte	$33
	.byte	$34
	.byte	$25
	.byte	$09
	.byte	$09
	.byte	$35
	.byte	$36
	.byte	$37
	.byte	$38
	.byte	$39
	.byte	$3A
	.byte	$1A
	.byte	$3B
	.byte	$09
	.byte	$3C
	.byte	$3D
	.byte	$3E
	.byte	$20
	.byte	$20
	.byte	$20
	.byte	$3F
	.byte	$40
	.byte	$09
	.byte	$41
	.byte	$05
	.byte	$42
	.byte	$43
	.byte	$20
	.byte	$20
	.byte	$20
	.byte	$44
	.byte	$09
	.byte	$45
	.byte	$46
	.byte	$25
	.byte	$09
	.byte	$09
	.byte	$47
	.byte	$48
	.byte	$20
	.byte	$49
	.byte	$09
	.byte	$3A
	.byte	$1A
	.byte	$3B
	.byte	$09
	.byte	$09
	.byte	$4A
	.byte	$20
	.byte	$20
	.byte	$20
	.byte	$20
	.byte	$20
	.byte	$4B
	.byte	$4C
	.byte	$41
	.byte	$05
	.byte	$4D
	.byte	$4E
	.byte	$20
	.byte	$20
	.byte	$4F
	.byte	$50
	.byte	$51
	.byte	$09
	.byte	$52
	.byte	$25
	.byte	$09
	.byte	$09
	.byte	$53
	.byte	$20
	.byte	$20
	.byte	$54
	.byte	$55
	.byte	$3A
	.byte	$1A
	.byte	$56
	.byte	$09
	.byte	$57
	.byte	$20
	.byte	$20
	.byte	$20
	.byte	$20
	.byte	$20
	.byte	$20
	.byte	$20
	.byte	$58
	.byte	$59
	.byte	$5A
	.byte	$5B
	.byte	$5C
	.byte	$5D
	.byte	$20
	.byte	$5E
	.byte	$5F
	.byte	$60
	.byte	$61
	.byte	$62
	.byte	$25
	.byte	$09
	.byte	$63
	.byte	$64
	.byte	$20
	.byte	$65
	.byte	$66
	.byte	$67
	.byte	$68
	.byte	$1A
	.byte	$69
	.byte	$09
	.byte	$6A
	.byte	$20
	.byte	$20
	.byte	$20
	.byte	$20
	.byte	$20
	.byte	$6B
	.byte	$54
	.byte	$6C
	.byte	$41
	.byte	$6D
	.byte	$6E
	.byte	$6F
	.byte	$70
	.byte	$20
	.byte	$71
	.byte	$09
	.byte	$72
	.byte	$73
	.byte	$74
	.byte	$25
	.byte	$75
	.byte	$76
	.byte	$77
	.byte	$20
	.byte	$78
	.byte	$09
	.byte	$09
	.byte	$79
	.byte	$1A
	.byte	$7A
	.byte	$7B
	.byte	$27
	.byte	$7C
	.byte	$20
	.byte	$20
	.byte	$20
	.byte	$20
	.byte	$7D
	.byte	$7E
	.byte	$09
	.byte	$7F
	.byte	$6D
	.byte	$80
	.byte	$01
	.byte	$81
	.byte	$82
	.byte	$83
	.byte	$84
	.byte	$85
	.byte	$01
	.byte	$74
	.byte	$25
	.byte	$86
	.byte	$87
	.byte	$88
	.byte	$20
	.byte	$89
	.byte	$09
	.byte	$09
	.byte	$79
	.byte	$1A
	.byte	$69
	.byte	$8A
	.byte	$20
	.byte	$8B
	.byte	$20
	.byte	$20
	.byte	$20
	.byte	$20
	.byte	$20
	.byte	$8C
	.byte	$09
	.byte	$8D
	.byte	$6D
	.byte	$01
	.byte	$8E
	.byte	$20
	.byte	$20
	.byte	$8F
	.byte	$90
	.byte	$09
	.byte	$91
	.byte	$92
	.byte	$25
	.byte	$09
	.byte	$93
	.byte	$94
	.byte	$20
	.byte	$95
	.byte	$96
	.byte	$09
	.byte	$79
	.byte	$02
	.byte	$69
	.byte	$97
	.byte	$98
	.byte	$99
	.byte	$20
	.byte	$20
	.byte	$20
	.byte	$20
	.byte	$9A
	.byte	$9B
	.byte	$09
	.byte	$8D
	.byte	$FF
	.byte	$9D
	.byte	$9E
	.byte	$20
	.byte	$20
	.byte	$20
	.byte	$7D
	.byte	$09
	.byte	$9F
	.byte	$92
	.byte	$25
	.byte	$09
	.byte	$A0
	.byte	$A1
	.byte	$95
	.byte	$A2
	.byte	$A3
	.byte	$09
	.byte	$A4
	.byte	$FF
	.byte	$69
	.byte	$09
	.byte	$57
	.byte	$9A
	.byte	$20
	.byte	$20
	.byte	$A5
	.byte	$A2
	.byte	$89
	.byte	$A6
	.byte	$09
	.byte	$8D
	.byte	$FF
	.byte	$A7
	.byte	$A8
	.byte	$20
	.byte	$20
	.byte	$20
	.byte	$20
	.byte	$A9
	.byte	$AA
	.byte	$92
	.byte	$25
	.byte	$09
	.byte	$AB
	.byte	$AC
	.byte	$20
	.byte	$AD
	.byte	$AE
	.byte	$09
	.byte	$A4
	.byte	$FF
	.byte	$7A
	.byte	$09
	.byte	$AF
	.byte	$B0
	.byte	$B1
	.byte	$B2
	.byte	$09
	.byte	$B3
	.byte	$20
	.byte	$A3
	.byte	$09
	.byte	$B4
	.byte	$FF
	.byte	$B5
	.byte	$B6
	.byte	$20
	.byte	$20
	.byte	$9A
	.byte	$B7
	.byte	$1D
	.byte	$B8
	.byte	$92
	.byte	$25
	.byte	$29
	.byte	$B9
	.byte	$29
	.byte	$20
	.byte	$BA
	.byte	$AE
	.byte	$09
	.byte	$A4
	.byte	$FF
	.byte	$69
	.byte	$09
	.byte	$BB
	.byte	$BC
	.byte	$20
	.byte	$BD
	.byte	$09
	.byte	$BE
	.byte	$20
	.byte	$BF
	.byte	$09
	.byte	$B4
	.byte	$FF
	.byte	$C1
	.byte	$20
	.byte	$20
	.byte	$C2
	.byte	$C3
	.byte	$C4
	.byte	$C5
	.byte	$C6
	.byte	$52
	.byte	$25
	.byte	$09
	.byte	$C7
	.byte	$C8
	.byte	$20
	.byte	$C9
	.byte	$CA
	.byte	$09
	.byte	$A4
	.byte	$FF
	.byte	$CB
	.byte	$09
	.byte	$09
	.byte	$BE
	.byte	$20
	.byte	$CC
	.byte	$09
	.byte	$CD
	.byte	$20
	.byte	$CE
	.byte	$09
	.byte	$B4
	.byte	$FF
	.byte	$CF
	.byte	$01
	.byte	$D0
	.byte	$D1
	.byte	$D2
	.byte	$12
	.byte	$09
	.byte	$D3
	.byte	$92
	.byte	$D4
	.byte	$96
	.byte	$D5
	.byte	$D6
	.byte	$D7
	.byte	$D8
	.byte	$D9
	.byte	$DA
	.byte	$DB
	.byte	$FF
	.byte	$DC
	.byte	$0B
	.byte	$DD
	.byte	$DE
	.byte	$DF
	.byte	$09
	.byte	$09
	.byte	$E0
	.byte	$E1
	.byte	$E2
	.byte	$E3
	.byte	$E4
	.byte	$FF
	.byte	$E5
	.byte	$E6
	.byte	$E7
	.byte	$09
	.byte	$09
	.byte	$E8
	.byte	$09
	.byte	$09
	.byte	$E9
	.byte	$FF
	.byte	$EA
	.byte	$EB
	.byte	$EC
	.byte	$ED
	.byte	$ED
	.byte	$EE
	.byte	$EF
	.byte	$F0
	.byte	$FF
	.byte	$FF
	.byte	$F1
	.byte	$EB
	.byte	$EC
	.byte	$ED
	.byte	$F2
	.byte	$F2
	.byte	$ED
	.byte	$F3
	.byte	$F4
	.byte	$F5
	.byte	$F6
	.byte	$FF
	.byte	$F7
	.byte	$F8
	.byte	$F9
	.byte	$FA
	.byte	$FA
	.byte	$F3
	.byte	$FB
	.byte	$FC
	.byte	$FF
	.byte	$FF
	.byte	$FF
	.byte	$FF
	.byte	$FF
	.byte	$FD
	.byte	$FD
	.byte	$FF
	.byte	$FF
	.byte	$FF
	.byte	$FF
	.byte	$FF
	.byte	$FF
	.byte	$FF
	.byte	$FF
	.byte	$FD
	.byte	$FE
	.byte	$FE
	.byte	$FE
	.byte	$9C
	.byte	$FF
	.byte	$FF
	.byte	$FF
	.byte	$FF
	.byte	$FF
	.byte	$FF
	.byte	$FF
	.byte	$FD
	.byte	$FD
	.byte	$9C
	.byte	$FF
	.byte	$FF
	.byte	$FF
	.byte	$FF
	.byte	$FF
	.byte	$FF
	.byte	$FF
	.byte	$FF
	.byte	$FF
	.byte	$FF
	.byte	$FF
	.byte	$FF
	.byte	$FF
	.byte	$FF
	.byte	$FF
	.byte	$FF
	.byte	$FF
	.byte	$FF
	.byte	$FF
	.byte	$FF
	.byte	$FF
	.byte	$FF
	.byte	$FF
	.byte	$FF
	.byte	$FF
	.byte	$FF
	.byte	$FF
	.byte	$FF
	.byte	$FF
	.byte	$FF
	.byte	$FF
	.byte	$FF
	.byte	$FF
	.byte	$FF
	.byte	$FF
	.byte	$FF
	.byte	$FF
	.byte	$FF
	.byte	$FF
	.byte	$FF
	.byte	$FF
	.byte	$FF
	.byte	$FF
	.byte	$FF
	.byte	$FF
	.byte	$FF
	.byte	$FF
	.byte	$FF
	.byte	$FF
	.byte	$FF
	.byte	$FF
	.byte	$FF
	.byte	$FF
	.byte	$FF
	.byte	$FF
	.byte	$FF
	.byte	$FF
	.byte	$FF
	.byte	$FF
	.byte	$FF
	.byte	$FF
	.byte	$FF
	.byte	$FF
	.byte	$FF
	.byte	$FF
	.byte	$FF
	.byte	$FF
	.byte	$FF
	.byte	$FF
	.byte	$FF
	.byte	$FF
	.byte	$FF
	.byte	$FF
	.byte	$FF
	.byte	$FF
	.byte	$FF
	.byte	$FF
	.byte	$FF
	.byte	$FF
	.byte	$FF
	.byte	$FF
	.byte	$FF
	.byte	$FF
	.byte	$FF
	.byte	$FF
	.byte	$FF
	.byte	$FF
	.byte	$FF
	.byte	$FF
	.byte	$FF
	.byte	$FF
	.byte	$FF
	.byte	$FF
	.byte	$FF
	.byte	$FF
	.byte	$FF
	.byte	$FF
	.byte	$FF
	.byte	$FF
	.byte	$FF
	.byte	$FF
	.byte	$FF
	.byte	$FF
	.byte	$FF
	.byte	$FF
	.byte	$FF
	.byte	$FF
	.byte	$FF
	.byte	$FF
	.byte	$FF
	.byte	$FF
	.byte	$FF
	.byte	$FF
	.byte	$FF
	.byte	$FF
	.byte	$FF
	.byte	$FF
	.byte	$FF
	.byte	$FF
	.byte	$FF
	.byte	$FF
	.byte	$FF
	.byte	$FF
	.byte	$FF
	.byte	$FF
	.byte	$FF
	.byte	$FF
	.byte	$FF
	.byte	$FF
	.byte	$FF
	.byte	$FF
	.byte	$FF
	.byte	$FF
	.byte	$FF
	.byte	$FF
	.byte	$FF
	.byte	$FF
	.byte	$FF
	.byte	$FF
	.byte	$FF
	.byte	$FF
	.byte	$FF
	.byte	$FF
	.byte	$FF
	.byte	$FF
	.byte	$FF
	.byte	$FF
	.byte	$FF
	.byte	$FF
	.byte	$FF
	.byte	$FF
	.byte	$FF
	.byte	$FF
	.byte	$FF
	.byte	$FF
	.byte	$FF
	.byte	$FF
	.byte	$FF
	.byte	$FF
	.byte	$FF
	.byte	$FF
	.byte	$FF
	.byte	$FF
	.byte	$FF
	.byte	$FF
	.byte	$FF
	.byte	$FF
	.byte	$FF
	.byte	$FF
	.byte	$FF
	.byte	$FF
	.byte	$FF
	.byte	$FF
	.byte	$FF
	.byte	$FF
	.byte	$FF
	.byte	$FF
	.byte	$FF
	.byte	$FF
	.byte	$FF
	.byte	$FF
	.byte	$FF
	.byte	$FF
	.byte	$FF
	.byte	$FF
	.byte	$FF
	.byte	$FF
	.byte	$FF
	.byte	$FF
	.byte	$FF
	.byte	$FF
	.byte	$FF
	.byte	$FF
	.byte	$FF
	.byte	$FF
	.byte	$FF
	.byte	$FF
	.byte	$FF
	.byte	$FF
	.byte	$FF
	.byte	$FF
	.byte	$FF
	.byte	$FF
	.byte	$FF
	.byte	$FF
	.byte	$FF
	.byte	$FF
	.byte	$FF
	.byte	$FF
	.byte	$FF
	.byte	$FF
	.byte	$FF
	.byte	$FF
	.byte	$FF
	.byte	$FF
	.byte	$FF
	.byte	$FF
	.byte	$FF
	.byte	$FF
	.byte	$FF
	.byte	$FF
	.byte	$FF
	.byte	$FF
	.byte	$FF
	.byte	$FF
	.byte	$FF
	.byte	$FF
	.byte	$FF
	.byte	$FF
	.byte	$FF
	.byte	$FF
	.byte	$FF
	.byte	$FF
	.byte	$FF
	.byte	$FF
	.byte	$FF
	.byte	$FF
	.byte	$FF
	.byte	$FF
	.byte	$FF
	.byte	$FF
	.byte	$FF
	.byte	$FF
	.byte	$FF
	.byte	$FF
	.byte	$FF
	.byte	$FF
	.byte	$FF
	.byte	$FF
	.byte	$FF
	.byte	$FF
	.byte	$FF
	.byte	$FF
	.byte	$FF
	.byte	$FF
	.byte	$FF
	.byte	$FF
	.byte	$FF
	.byte	$FF
	.byte	$FF
	.byte	$FF
	.byte	$FF
	.byte	$FF
	.byte	$FF
	.byte	$FF
	.byte	$FF
	.byte	$FF
	.byte	$FF
	.byte	$FF
	.byte	$FF
	.byte	$FF
	.byte	$FF
	.byte	$FF
	.byte	$FF
	.byte	$FF
	.byte	$FF
	.byte	$FF
	.byte	$FF
	.byte	$FF
	.byte	$FF
	.byte	$FF
	.byte	$FF
	.byte	$FF
	.byte	$FF
	.byte	$FF
	.byte	$FF
	.byte	$FF
	.byte	$FF
	.byte	$FF
	.byte	$FF
	.byte	$FF
	.byte	$FF
	.byte	$FF
	.byte	$FF
	.byte	$FF
	.byte	$FF
	.byte	$FF
	.byte	$FF
	.byte	$FF
	.byte	$FF
	.byte	$FF
	.byte	$FF
	.byte	$FF
	.byte	$FF
	.byte	$FF
	.byte	$FF
	.byte	$FF
	.byte	$FF
	.byte	$FF
	.byte	$FF
	.byte	$FF
	.byte	$FF
	.byte	$FF
	.byte	$FF
	.byte	$FF
	.byte	$FF
	.byte	$FF
	.byte	$FF
	.byte	$FF
	.byte	$FF
	.byte	$FF
	.byte	$FF
	.byte	$FF
	.byte	$FF
	.byte	$FF
	.byte	$FF
	.byte	$FF
	.byte	$FF
	.byte	$FF
	.byte	$FF
	.byte	$FF
	.byte	$FF
	.byte	$FF
	.byte	$FF
	.byte	$FF
	.byte	$FF
	.byte	$FF
	.byte	$FF
	.byte	$FF
	.byte	$FF
	.byte	$FF
	.byte	$FF
	.byte	$FF
	.byte	$FF
	.byte	$FF
	.byte	$FF
	.byte	$FF
	.byte	$FF
	.byte	$FF
	.byte	$FF
	.byte	$FF
	.byte	$FF
	.byte	$FF
	.byte	$FF
	.byte	$FF
	.byte	$FF
	.byte	$FF
	.byte	$FF
	.byte	$FF
	.byte	$FF
	.byte	$FF
	.byte	$FF
	.byte	$FF
	.byte	$FF
	.byte	$FF
	.byte	$FF
	.byte	$FF
	.byte	$FF
	.byte	$FF
	.byte	$FF
	.byte	$FF
	.byte	$FF
	.byte	$FF
	.byte	$FF
	.byte	$FF
	.byte	$FF
	.byte	$FF
	.byte	$FF
	.byte	$FF
	.byte	$FF
	.byte	$FF
	.byte	$FF
	.byte	$FF
	.byte	$FF
	.byte	$FF
	.byte	$FF
	.byte	$FF
	.byte	$00
	.byte	$00
	.byte	$00
	.byte	$00
	.byte	$00
	.byte	$00
	.byte	$00
	.byte	$00
	.byte	$00
	.byte	$00
	.byte	$00
	.byte	$00
	.byte	$00
	.byte	$00
	.byte	$00
	.byte	$00
	.byte	$00
	.byte	$00
	.byte	$00
	.byte	$00
	.byte	$00
	.byte	$00
	.byte	$00
	.byte	$00
	.byte	$00
	.byte	$00
	.byte	$00
	.byte	$00
	.byte	$00
	.byte	$00
	.byte	$00
	.byte	$00
	.byte	$00
	.byte	$00
	.byte	$00
	.byte	$00
	.byte	$00
	.byte	$00
	.byte	$00
	.byte	$00
	.byte	$00
	.byte	$00
	.byte	$00
	.byte	$00
	.byte	$00
	.byte	$00
	.byte	$00
	.byte	$00
	.byte	$00
	.byte	$00
	.byte	$00
	.byte	$00
	.byte	$00
	.byte	$00
	.byte	$00
	.byte	$00
	.byte	$00
	.byte	$00
	.byte	$00
	.byte	$00
	.byte	$00
	.byte	$00
	.byte	$00
	.byte	$00
_the3Heroes_attr:
	.byte	$00
	.byte	$00
	.byte	$44
	.byte	$55
	.byte	$55
	.byte	$99
	.byte	$AA
	.byte	$AA
	.byte	$00
	.byte	$00
	.byte	$44
	.byte	$55
	.byte	$55
	.byte	$99
	.byte	$AA
	.byte	$AA
	.byte	$00
	.byte	$00
	.byte	$44
	.byte	$55
	.byte	$55
	.byte	$99
	.byte	$AA
	.byte	$AA
	.byte	$00
	.byte	$00
	.byte	$44
	.byte	$55
	.byte	$55
	.byte	$99
	.byte	$AA
	.byte	$AA
	.byte	$00
	.byte	$00
	.byte	$44
	.byte	$55
	.byte	$55
	.byte	$99
	.byte	$AA
	.byte	$AA
_sealAngelHeaven:
	.byte	$98
	.byte	$00
	.byte	$98
	.byte	$0A
	.byte	$01
	.byte	$02
	.byte	$03
	.byte	$98
	.byte	$05
	.byte	$41
	.byte	$42
	.byte	$00
	.byte	$98
	.byte	$15
	.byte	$04
	.byte	$02
	.byte	$03
	.byte	$98
	.byte	$05
	.byte	$43
	.byte	$44
	.byte	$00
	.byte	$98
	.byte	$15
	.byte	$05
	.byte	$02
	.byte	$03
	.byte	$98
	.byte	$06
	.byte	$45
	.byte	$00
	.byte	$98
	.byte	$15
	.byte	$04
	.byte	$02
	.byte	$03
	.byte	$98
	.byte	$02
	.byte	$46
	.byte	$03
	.byte	$98
	.byte	$02
	.byte	$47
	.byte	$00
	.byte	$98
	.byte	$15
	.byte	$06
	.byte	$02
	.byte	$07
	.byte	$08
	.byte	$03
	.byte	$48
	.byte	$49
	.byte	$4A
	.byte	$4B
	.byte	$45
	.byte	$00
	.byte	$98
	.byte	$15
	.byte	$09
	.byte	$0A
	.byte	$0B
	.byte	$0C
	.byte	$03
	.byte	$4C
	.byte	$4D
	.byte	$4E
	.byte	$4F
	.byte	$50
	.byte	$00
	.byte	$98
	.byte	$15
	.byte	$04
	.byte	$0D
	.byte	$0E
	.byte	$0F
	.byte	$10
	.byte	$51
	.byte	$52
	.byte	$53
	.byte	$03
	.byte	$54
	.byte	$00
	.byte	$98
	.byte	$15
	.byte	$04
	.byte	$11
	.byte	$03
	.byte	$03
	.byte	$12
	.byte	$55
	.byte	$56
	.byte	$03
	.byte	$03
	.byte	$57
	.byte	$00
	.byte	$98
	.byte	$0F
	.byte	$13
	.byte	$14
	.byte	$15
	.byte	$16
	.byte	$98
	.byte	$02
	.byte	$17
	.byte	$03
	.byte	$98
	.byte	$02
	.byte	$18
	.byte	$58
	.byte	$59
	.byte	$03
	.byte	$03
	.byte	$5A
	.byte	$16
	.byte	$98
	.byte	$03
	.byte	$00
	.byte	$98
	.byte	$08
	.byte	$19
	.byte	$1A
	.byte	$1B
	.byte	$1C
	.byte	$1D
	.byte	$1E
	.byte	$1F
	.byte	$20
	.byte	$21
	.byte	$22
	.byte	$03
	.byte	$98
	.byte	$03
	.byte	$5B
	.byte	$03
	.byte	$98
	.byte	$02
	.byte	$5C
	.byte	$5D
	.byte	$5E
	.byte	$5F
	.byte	$60
	.byte	$61
	.byte	$62
	.byte	$63
	.byte	$64
	.byte	$65
	.byte	$66
	.byte	$67
	.byte	$23
	.byte	$24
	.byte	$00
	.byte	$98
	.byte	$02
	.byte	$25
	.byte	$26
	.byte	$27
	.byte	$11
	.byte	$03
	.byte	$03
	.byte	$28
	.byte	$03
	.byte	$98
	.byte	$07
	.byte	$68
	.byte	$69
	.byte	$03
	.byte	$03
	.byte	$6A
	.byte	$6B
	.byte	$30
	.byte	$6C
	.byte	$6D
	.byte	$6E
	.byte	$6F
	.byte	$00
	.byte	$03
	.byte	$03
	.byte	$29
	.byte	$2A
	.byte	$2B
	.byte	$2C
	.byte	$2D
	.byte	$2E
	.byte	$2F
	.byte	$30
	.byte	$31
	.byte	$32
	.byte	$03
	.byte	$98
	.byte	$07
	.byte	$70
	.byte	$71
	.byte	$72
	.byte	$03
	.byte	$73
	.byte	$74
	.byte	$75
	.byte	$76
	.byte	$77
	.byte	$78
	.byte	$79
	.byte	$7A
	.byte	$03
	.byte	$98
	.byte	$07
	.byte	$33
	.byte	$34
	.byte	$03
	.byte	$35
	.byte	$03
	.byte	$98
	.byte	$02
	.byte	$36
	.byte	$7B
	.byte	$56
	.byte	$03
	.byte	$03
	.byte	$7C
	.byte	$03
	.byte	$7D
	.byte	$7E
	.byte	$7F
	.byte	$80
	.byte	$81
	.byte	$03
	.byte	$98
	.byte	$0C
	.byte	$37
	.byte	$38
	.byte	$03
	.byte	$39
	.byte	$3A
	.byte	$03
	.byte	$33
	.byte	$3B
	.byte	$82
	.byte	$83
	.byte	$03
	.byte	$84
	.byte	$85
	.byte	$03
	.byte	$86
	.byte	$03
	.byte	$98
	.byte	$16
	.byte	$3C
	.byte	$3D
	.byte	$87
	.byte	$88
	.byte	$03
	.byte	$98
	.byte	$1A
	.byte	$3E
	.byte	$3F
	.byte	$40
	.byte	$00
	.byte	$89
	.byte	$8A
	.byte	$8B
	.byte	$03
	.byte	$98
	.byte	$19
	.byte	$8C
	.byte	$8D
	.byte	$93
	.byte	$94
	.byte	$03
	.byte	$98
	.byte	$1C
	.byte	$8E
	.byte	$95
	.byte	$56
	.byte	$03
	.byte	$98
	.byte	$0D
	.byte	$8F
	.byte	$98
	.byte	$0D
	.byte	$90
	.byte	$91
	.byte	$96
	.byte	$97
	.byte	$8F
	.byte	$98
	.byte	$0D
	.byte	$92
	.byte	$98
	.byte	$FE
	.byte	$92
	.byte	$98
	.byte	$60
	.byte	$00
	.byte	$98
	.byte	$3E
	.byte	$00
	.byte	$98
	.byte	$00
_castle:
	.byte	$FF
	.byte	$FF
	.byte	$FF
	.byte	$FF
	.byte	$FF
	.byte	$FF
	.byte	$FF
	.byte	$FF
	.byte	$FF
	.byte	$FF
	.byte	$FF
	.byte	$FF
	.byte	$FF
	.byte	$FF
	.byte	$FF
	.byte	$FF
	.byte	$FF
	.byte	$FF
	.byte	$FF
	.byte	$FF
	.byte	$FF
	.byte	$FF
	.byte	$FF
	.byte	$FF
	.byte	$FF
	.byte	$FF
	.byte	$FF
	.byte	$01
	.byte	$FF
	.byte	$FF
	.byte	$FF
	.byte	$FF
	.byte	$FF
	.byte	$FF
	.byte	$FF
	.byte	$FF
	.byte	$FF
	.byte	$FF
	.byte	$FF
	.byte	$FF
	.byte	$FF
	.byte	$FF
	.byte	$FF
	.byte	$FF
	.byte	$FF
	.byte	$FF
	.byte	$FF
	.byte	$FF
	.byte	$FF
	.byte	$FF
	.byte	$FF
	.byte	$FF
	.byte	$FF
	.byte	$FF
	.byte	$FF
	.byte	$FF
	.byte	$FF
	.byte	$FF
	.byte	$FF
	.byte	$02
	.byte	$FF
	.byte	$FF
	.byte	$FF
	.byte	$FF
	.byte	$FF
	.byte	$FF
	.byte	$FF
	.byte	$FF
	.byte	$FF
	.byte	$FF
	.byte	$FF
	.byte	$FF
	.byte	$FF
	.byte	$FF
	.byte	$FF
	.byte	$FF
	.byte	$FF
	.byte	$FF
	.byte	$FF
	.byte	$FF
	.byte	$FF
	.byte	$FF
	.byte	$FF
	.byte	$FF
	.byte	$FF
	.byte	$FF
	.byte	$FF
	.byte	$FF
	.byte	$FF
	.byte	$FF
	.byte	$FF
	.byte	$03
	.byte	$04
	.byte	$FF
	.byte	$FF
	.byte	$FF
	.byte	$05
	.byte	$FF
	.byte	$FF
	.byte	$FF
	.byte	$FF
	.byte	$FF
	.byte	$FF
	.byte	$FF
	.byte	$FF
	.byte	$FF
	.byte	$FF
	.byte	$FF
	.byte	$FF
	.byte	$FF
	.byte	$FF
	.byte	$FF
	.byte	$FF
	.byte	$FF
	.byte	$FF
	.byte	$FF
	.byte	$FF
	.byte	$04
	.byte	$FF
	.byte	$FF
	.byte	$FF
	.byte	$FF
	.byte	$06
	.byte	$07
	.byte	$08
	.byte	$FF
	.byte	$FF
	.byte	$FF
	.byte	$09
	.byte	$FF
	.byte	$FF
	.byte	$FF
	.byte	$FF
	.byte	$FF
	.byte	$FF
	.byte	$FF
	.byte	$FF
	.byte	$FF
	.byte	$FF
	.byte	$FF
	.byte	$FF
	.byte	$FF
	.byte	$FF
	.byte	$FF
	.byte	$FF
	.byte	$FF
	.byte	$FF
	.byte	$FF
	.byte	$0A
	.byte	$0B
	.byte	$FF
	.byte	$FF
	.byte	$FF
	.byte	$FF
	.byte	$0C
	.byte	$FF
	.byte	$0D
	.byte	$0E
	.byte	$FF
	.byte	$FF
	.byte	$FF
	.byte	$FF
	.byte	$FF
	.byte	$FF
	.byte	$FF
	.byte	$FF
	.byte	$FF
	.byte	$FF
	.byte	$FF
	.byte	$FF
	.byte	$FF
	.byte	$FF
	.byte	$FF
	.byte	$FF
	.byte	$FF
	.byte	$FF
	.byte	$FF
	.byte	$FF
	.byte	$FF
	.byte	$FF
	.byte	$0C
	.byte	$08
	.byte	$FF
	.byte	$FF
	.byte	$FF
	.byte	$FF
	.byte	$0F
	.byte	$FF
	.byte	$FF
	.byte	$08
	.byte	$FF
	.byte	$FF
	.byte	$10
	.byte	$FF
	.byte	$FF
	.byte	$FF
	.byte	$FF
	.byte	$FF
	.byte	$FF
	.byte	$FF
	.byte	$FF
	.byte	$FF
	.byte	$FF
	.byte	$FF
	.byte	$FF
	.byte	$FF
	.byte	$FF
	.byte	$FF
	.byte	$FF
	.byte	$FF
	.byte	$FF
	.byte	$FF
	.byte	$0F
	.byte	$11
	.byte	$12
	.byte	$FF
	.byte	$FF
	.byte	$13
	.byte	$14
	.byte	$FF
	.byte	$FF
	.byte	$15
	.byte	$04
	.byte	$FF
	.byte	$16
	.byte	$17
	.byte	$FF
	.byte	$FF
	.byte	$FF
	.byte	$FF
	.byte	$FF
	.byte	$FF
	.byte	$FF
	.byte	$FF
	.byte	$FF
	.byte	$FF
	.byte	$FF
	.byte	$FF
	.byte	$FF
	.byte	$FF
	.byte	$13
	.byte	$FF
	.byte	$FF
	.byte	$18
	.byte	$19
	.byte	$1A
	.byte	$1B
	.byte	$FF
	.byte	$1C
	.byte	$1D
	.byte	$FF
	.byte	$FF
	.byte	$FF
	.byte	$FF
	.byte	$11
	.byte	$1E
	.byte	$1F
	.byte	$20
	.byte	$FF
	.byte	$FF
	.byte	$FF
	.byte	$FF
	.byte	$FF
	.byte	$FF
	.byte	$FF
	.byte	$FF
	.byte	$FF
	.byte	$FF
	.byte	$21
	.byte	$22
	.byte	$23
	.byte	$24
	.byte	$25
	.byte	$FF
	.byte	$FF
	.byte	$26
	.byte	$FF
	.byte	$FF
	.byte	$11
	.byte	$1E
	.byte	$06
	.byte	$27
	.byte	$FF
	.byte	$FF
	.byte	$FF
	.byte	$FF
	.byte	$FF
	.byte	$28
	.byte	$FF
	.byte	$FF
	.byte	$FF
	.byte	$FF
	.byte	$FF
	.byte	$FF
	.byte	$FF
	.byte	$FF
	.byte	$FF
	.byte	$FF
	.byte	$FF
	.byte	$29
	.byte	$2A
	.byte	$2B
	.byte	$2C
	.byte	$2D
	.byte	$2E
	.byte	$FF
	.byte	$2F
	.byte	$30
	.byte	$FF
	.byte	$FF
	.byte	$2F
	.byte	$31
	.byte	$32
	.byte	$33
	.byte	$34
	.byte	$FF
	.byte	$FF
	.byte	$FF
	.byte	$FF
	.byte	$FF
	.byte	$FF
	.byte	$12
	.byte	$FF
	.byte	$FF
	.byte	$FF
	.byte	$FF
	.byte	$FF
	.byte	$FF
	.byte	$FF
	.byte	$FF
	.byte	$FF
	.byte	$FF
	.byte	$FF
	.byte	$FF
	.byte	$FF
	.byte	$FF
	.byte	$35
	.byte	$36
	.byte	$37
	.byte	$38
	.byte	$39
	.byte	$3A
	.byte	$3B
	.byte	$3C
	.byte	$FF
	.byte	$3D
	.byte	$3E
	.byte	$3A
	.byte	$3F
	.byte	$40
	.byte	$29
	.byte	$41
	.byte	$FF
	.byte	$05
	.byte	$FF
	.byte	$FF
	.byte	$FF
	.byte	$FF
	.byte	$FF
	.byte	$FF
	.byte	$FF
	.byte	$FF
	.byte	$FF
	.byte	$FF
	.byte	$FF
	.byte	$FF
	.byte	$FF
	.byte	$FF
	.byte	$35
	.byte	$FF
	.byte	$42
	.byte	$FF
	.byte	$43
	.byte	$44
	.byte	$45
	.byte	$46
	.byte	$0A
	.byte	$47
	.byte	$FF
	.byte	$FF
	.byte	$48
	.byte	$2A
	.byte	$49
	.byte	$4A
	.byte	$FF
	.byte	$05
	.byte	$FF
	.byte	$FF
	.byte	$FF
	.byte	$FF
	.byte	$FF
	.byte	$FF
	.byte	$FF
	.byte	$FF
	.byte	$FF
	.byte	$FF
	.byte	$FF
	.byte	$36
	.byte	$4B
	.byte	$4C
	.byte	$4D
	.byte	$4E
	.byte	$4F
	.byte	$FF
	.byte	$50
	.byte	$FF
	.byte	$FF
	.byte	$FF
	.byte	$15
	.byte	$51
	.byte	$FF
	.byte	$FF
	.byte	$FF
	.byte	$FF
	.byte	$FF
	.byte	$FF
	.byte	$FF
	.byte	$05
	.byte	$FF
	.byte	$FF
	.byte	$FF
	.byte	$FF
	.byte	$FF
	.byte	$FF
	.byte	$FF
	.byte	$FF
	.byte	$FF
	.byte	$FF
	.byte	$FF
	.byte	$52
	.byte	$12
	.byte	$FF
	.byte	$32
	.byte	$53
	.byte	$FF
	.byte	$FF
	.byte	$FF
	.byte	$06
	.byte	$06
	.byte	$0E
	.byte	$FF
	.byte	$54
	.byte	$55
	.byte	$1E
	.byte	$FF
	.byte	$FF
	.byte	$FF
	.byte	$FF
	.byte	$FF
	.byte	$FF
	.byte	$56
	.byte	$FF
	.byte	$FF
	.byte	$FF
	.byte	$FF
	.byte	$FF
	.byte	$FF
	.byte	$FF
	.byte	$FF
	.byte	$1A
	.byte	$04
	.byte	$52
	.byte	$FF
	.byte	$FF
	.byte	$57
	.byte	$58
	.byte	$FF
	.byte	$FF
	.byte	$FF
	.byte	$59
	.byte	$5A
	.byte	$FF
	.byte	$FF
	.byte	$54
	.byte	$FF
	.byte	$FF
	.byte	$FF
	.byte	$FF
	.byte	$FF
	.byte	$FF
	.byte	$FF
	.byte	$FF
	.byte	$56
	.byte	$5B
	.byte	$50
	.byte	$5C
	.byte	$5D
	.byte	$FF
	.byte	$FF
	.byte	$04
	.byte	$FF
	.byte	$1C
	.byte	$14
	.byte	$5E
	.byte	$0C
	.byte	$5F
	.byte	$48
	.byte	$60
	.byte	$61
	.byte	$62
	.byte	$2F
	.byte	$63
	.byte	$64
	.byte	$65
	.byte	$12
	.byte	$54
	.byte	$FF
	.byte	$FF
	.byte	$1C
	.byte	$62
	.byte	$FF
	.byte	$FF
	.byte	$FF
	.byte	$FF
	.byte	$FF
	.byte	$FF
	.byte	$FF
	.byte	$FF
	.byte	$66
	.byte	$FF
	.byte	$FF
	.byte	$FF
	.byte	$FF
	.byte	$67
	.byte	$53
	.byte	$68
	.byte	$67
	.byte	$2A
	.byte	$FF
	.byte	$69
	.byte	$67
	.byte	$60
	.byte	$6A
	.byte	$6B
	.byte	$6C
	.byte	$6D
	.byte	$6E
	.byte	$54
	.byte	$FF
	.byte	$FF
	.byte	$FF
	.byte	$6F
	.byte	$FF
	.byte	$FF
	.byte	$FF
	.byte	$5C
	.byte	$FF
	.byte	$FF
	.byte	$FF
	.byte	$FF
	.byte	$66
	.byte	$0A
	.byte	$FF
	.byte	$70
	.byte	$56
	.byte	$0A
	.byte	$71
	.byte	$72
	.byte	$FF
	.byte	$FF
	.byte	$73
	.byte	$74
	.byte	$75
	.byte	$FF
	.byte	$76
	.byte	$77
	.byte	$78
	.byte	$6D
	.byte	$79
	.byte	$54
	.byte	$FF
	.byte	$FF
	.byte	$FF
	.byte	$FF
	.byte	$FF
	.byte	$FF
	.byte	$29
	.byte	$7A
	.byte	$FF
	.byte	$FF
	.byte	$FF
	.byte	$FF
	.byte	$FF
	.byte	$7B
	.byte	$7C
	.byte	$7D
	.byte	$56
	.byte	$29
	.byte	$7E
	.byte	$7F
	.byte	$FF
	.byte	$FF
	.byte	$80
	.byte	$81
	.byte	$82
	.byte	$FF
	.byte	$83
	.byte	$84
	.byte	$85
	.byte	$86
	.byte	$07
	.byte	$54
	.byte	$FF
	.byte	$FF
	.byte	$FF
	.byte	$87
	.byte	$FF
	.byte	$FF
	.byte	$FF
	.byte	$53
	.byte	$FF
	.byte	$FF
	.byte	$FF
	.byte	$FF
	.byte	$FF
	.byte	$FF
	.byte	$FF
	.byte	$FF
	.byte	$FF
	.byte	$FF
	.byte	$FF
	.byte	$52
	.byte	$3C
	.byte	$FF
	.byte	$88
	.byte	$89
	.byte	$8A
	.byte	$FF
	.byte	$8B
	.byte	$6D
	.byte	$8C
	.byte	$8D
	.byte	$FF
	.byte	$54
	.byte	$FF
	.byte	$FF
	.byte	$FF
	.byte	$FF
	.byte	$8E
	.byte	$FF
	.byte	$FF
	.byte	$FF
	.byte	$FF
	.byte	$61
	.byte	$8F
	.byte	$FF
	.byte	$06
	.byte	$23
	.byte	$23
	.byte	$24
	.byte	$25
	.byte	$41
	.byte	$FF
	.byte	$90
	.byte	$46
	.byte	$0A
	.byte	$91
	.byte	$92
	.byte	$93
	.byte	$FF
	.byte	$1A
	.byte	$94
	.byte	$95
	.byte	$19
	.byte	$FF
	.byte	$54
	.byte	$FF
	.byte	$FF
	.byte	$96
	.byte	$97
	.byte	$98
	.byte	$1E
	.byte	$99
	.byte	$9A
	.byte	$9B
	.byte	$FF
	.byte	$9C
	.byte	$FF
	.byte	$9D
	.byte	$9E
	.byte	$9F
	.byte	$25
	.byte	$A0
	.byte	$A1
	.byte	$FF
	.byte	$90
	.byte	$FF
	.byte	$FF
	.byte	$53
	.byte	$FF
	.byte	$FF
	.byte	$FF
	.byte	$FF
	.byte	$FF
	.byte	$FF
	.byte	$A2
	.byte	$A3
	.byte	$A4
	.byte	$FF
	.byte	$FF
	.byte	$A5
	.byte	$A6
	.byte	$A7
	.byte	$A8
	.byte	$69
	.byte	$FF
	.byte	$A9
	.byte	$FF
	.byte	$FF
	.byte	$AA
	.byte	$AB
	.byte	$AC
	.byte	$AD
	.byte	$AE
	.byte	$FF
	.byte	$A1
	.byte	$FF
	.byte	$90
	.byte	$FF
	.byte	$FF
	.byte	$50
	.byte	$FF
	.byte	$FF
	.byte	$FF
	.byte	$FF
	.byte	$48
	.byte	$FF
	.byte	$FF
	.byte	$FF
	.byte	$AF
	.byte	$FF
	.byte	$0A
	.byte	$6D
	.byte	$6B
	.byte	$B0
	.byte	$B1
	.byte	$B2
	.byte	$FF
	.byte	$B3
	.byte	$B4
	.byte	$B5
	.byte	$B6
	.byte	$B7
	.byte	$FF
	.byte	$1C
	.byte	$33
	.byte	$FF
	.byte	$B8
	.byte	$B9
	.byte	$BA
	.byte	$BB
	.byte	$BC
	.byte	$FF
	.byte	$FF
	.byte	$06
	.byte	$FF
	.byte	$FF
	.byte	$FF
	.byte	$FF
	.byte	$FF
	.byte	$FF
	.byte	$BE
	.byte	$FF
	.byte	$15
	.byte	$6D
	.byte	$BF
	.byte	$C0
	.byte	$C1
	.byte	$46
	.byte	$FF
	.byte	$61
	.byte	$FF
	.byte	$FF
	.byte	$FF
	.byte	$FF
	.byte	$FF
	.byte	$FF
	.byte	$C2
	.byte	$C3
	.byte	$C4
	.byte	$C5
	.byte	$C6
	.byte	$FF
	.byte	$C7
	.byte	$FF
	.byte	$FF
	.byte	$6F
	.byte	$FF
	.byte	$FF
	.byte	$FF
	.byte	$FF
	.byte	$FF
	.byte	$18
	.byte	$C8
	.byte	$FF
	.byte	$FF
	.byte	$C9
	.byte	$CA
	.byte	$CB
	.byte	$CC
	.byte	$FF
	.byte	$FF
	.byte	$FF
	.byte	$CD
	.byte	$5F
	.byte	$0E
	.byte	$FF
	.byte	$FF
	.byte	$CE
	.byte	$55
	.byte	$FF
	.byte	$FF
	.byte	$CF
	.byte	$D0
	.byte	$07
	.byte	$D1
	.byte	$D2
	.byte	$FF
	.byte	$FF
	.byte	$FF
	.byte	$62
	.byte	$FF
	.byte	$FF
	.byte	$FF
	.byte	$67
	.byte	$D3
	.byte	$FF
	.byte	$FF
	.byte	$15
	.byte	$D4
	.byte	$D5
	.byte	$19
	.byte	$53
	.byte	$FF
	.byte	$FF
	.byte	$0D
	.byte	$D6
	.byte	$19
	.byte	$FF
	.byte	$FF
	.byte	$FF
	.byte	$FF
	.byte	$FF
	.byte	$FF
	.byte	$FF
	.byte	$CE
	.byte	$FF
	.byte	$FF
	.byte	$D7
	.byte	$FF
	.byte	$FF
	.byte	$FF
	.byte	$FF
	.byte	$D8
	.byte	$25
	.byte	$D9
	.byte	$FF
	.byte	$54
	.byte	$FF
	.byte	$FF
	.byte	$FF
	.byte	$FF
	.byte	$DA
	.byte	$DB
	.byte	$FF
	.byte	$73
	.byte	$DC
	.byte	$DD
	.byte	$FF
	.byte	$FF
	.byte	$FF
	.byte	$29
	.byte	$FF
	.byte	$FF
	.byte	$FF
	.byte	$FF
	.byte	$FF
	.byte	$FF
	.byte	$FF
	.byte	$FF
	.byte	$D7
	.byte	$FF
	.byte	$FF
	.byte	$FF
	.byte	$FF
	.byte	$DE
	.byte	$DF
	.byte	$E0
	.byte	$FF
	.byte	$E1
	.byte	$E2
	.byte	$E3
	.byte	$E4
	.byte	$29
	.byte	$66
	.byte	$05
	.byte	$FF
	.byte	$E5
	.byte	$E6
	.byte	$B0
	.byte	$E7
	.byte	$FF
	.byte	$FF
	.byte	$E8
	.byte	$E9
	.byte	$FF
	.byte	$DA
	.byte	$EA
	.byte	$EB
	.byte	$3C
	.byte	$1A
	.byte	$EC
	.byte	$D7
	.byte	$FF
	.byte	$FF
	.byte	$FF
	.byte	$36
	.byte	$ED
	.byte	$EE
	.byte	$EF
	.byte	$0A
	.byte	$F0
	.byte	$FF
	.byte	$F1
	.byte	$F2
	.byte	$F3
	.byte	$F4
	.byte	$61
	.byte	$FF
	.byte	$DE
	.byte	$DF
	.byte	$F5
	.byte	$F6
	.byte	$FF
	.byte	$1C
	.byte	$F7
	.byte	$F8
	.byte	$3C
	.byte	$F9
	.byte	$FA
	.byte	$B0
	.byte	$FB
	.byte	$FF
	.byte	$FC
	.byte	$D7
	.byte	$FF
	.byte	$FF
	.byte	$FD
	.byte	$48
	.byte	$53
	.byte	$FE
	.byte	$BD
	.byte	$4C
	.byte	$FF
	.byte	$FF
	.byte	$FF
	.byte	$FF
	.byte	$FF
	.byte	$FF
	.byte	$67
	.byte	$00
	.byte	$00
	.byte	$00
	.byte	$00
	.byte	$00
	.byte	$00
	.byte	$00
	.byte	$00
	.byte	$00
	.byte	$00
	.byte	$00
	.byte	$00
	.byte	$00
	.byte	$00
	.byte	$00
	.byte	$00
	.byte	$00
	.byte	$00
	.byte	$00
	.byte	$00
	.byte	$00
	.byte	$00
	.byte	$00
	.byte	$00
	.byte	$00
	.byte	$00
	.byte	$00
	.byte	$00
	.byte	$00
	.byte	$00
	.byte	$00
	.byte	$00
	.byte	$00
	.byte	$00
	.byte	$00
	.byte	$00
	.byte	$00
	.byte	$00
	.byte	$00
	.byte	$00
	.byte	$00
	.byte	$00
	.byte	$00
	.byte	$00
	.byte	$00
	.byte	$00
	.byte	$00
	.byte	$00
	.byte	$00
	.byte	$00
	.byte	$00
	.byte	$00
	.byte	$00
	.byte	$00
	.byte	$00
	.byte	$00
	.byte	$00
	.byte	$00
	.byte	$00
	.byte	$00
	.byte	$00
	.byte	$00
	.byte	$00
	.byte	$00
	.byte	$FF
	.byte	$01
	.byte	$02
	.byte	$03
	.byte	$04
	.byte	$05
	.byte	$06
	.byte	$07
	.byte	$08
	.byte	$09
	.byte	$0A
	.byte	$0B
	.byte	$0C
	.byte	$0D
	.byte	$FF
	.byte	$FF
	.byte	$0E
	.byte	$FF
	.byte	$FF
	.byte	$0F
	.byte	$FF
	.byte	$FF
	.byte	$FF
	.byte	$10
	.byte	$FF
	.byte	$FF
	.byte	$FF
	.byte	$FF
	.byte	$FF
	.byte	$FF
	.byte	$FF
	.byte	$FF
	.byte	$FF
	.byte	$11
	.byte	$12
	.byte	$13
	.byte	$14
	.byte	$15
	.byte	$16
	.byte	$17
	.byte	$18
	.byte	$19
	.byte	$1A
	.byte	$0B
	.byte	$1B
	.byte	$1C
	.byte	$FF
	.byte	$FF
	.byte	$1D
	.byte	$1E
	.byte	$1F
	.byte	$20
	.byte	$21
	.byte	$FF
	.byte	$FF
	.byte	$FF
	.byte	$FF
	.byte	$FF
	.byte	$22
	.byte	$23
	.byte	$FF
	.byte	$FF
	.byte	$24
	.byte	$25
	.byte	$26
	.byte	$27
	.byte	$FF
	.byte	$FF
	.byte	$28
	.byte	$29
	.byte	$16
	.byte	$2A
	.byte	$2B
	.byte	$16
	.byte	$2C
	.byte	$2D
	.byte	$2E
	.byte	$2F
	.byte	$30
	.byte	$31
	.byte	$32
	.byte	$33
	.byte	$FF
	.byte	$34
	.byte	$FF
	.byte	$FF
	.byte	$FF
	.byte	$FF
	.byte	$35
	.byte	$36
	.byte	$37
	.byte	$FF
	.byte	$FF
	.byte	$FF
	.byte	$FF
	.byte	$FF
	.byte	$FF
	.byte	$38
	.byte	$FF
	.byte	$FF
	.byte	$39
	.byte	$3A
	.byte	$16
	.byte	$3B
	.byte	$3C
	.byte	$16
	.byte	$3D
	.byte	$FF
	.byte	$FF
	.byte	$FF
	.byte	$FF
	.byte	$3E
	.byte	$3F
	.byte	$40
	.byte	$41
	.byte	$42
	.byte	$43
	.byte	$44
	.byte	$FF
	.byte	$FF
	.byte	$FF
	.byte	$45
	.byte	$46
	.byte	$FF
	.byte	$FF
	.byte	$FF
	.byte	$FF
	.byte	$FF
	.byte	$FF
	.byte	$FF
	.byte	$FF
	.byte	$FF
	.byte	$FF
	.byte	$47
	.byte	$48
	.byte	$49
	.byte	$4A
	.byte	$4B
	.byte	$FF
	.byte	$FF
	.byte	$FF
	.byte	$FF
	.byte	$FF
	.byte	$4D
	.byte	$4E
	.byte	$FF
	.byte	$FF
	.byte	$42
	.byte	$FF
	.byte	$FF
	.byte	$FF
	.byte	$FF
	.byte	$FF
	.byte	$4F
	.byte	$50
	.byte	$51
	.byte	$52
	.byte	$53
	.byte	$54
	.byte	$FF
	.byte	$FF
	.byte	$FF
	.byte	$FF
	.byte	$55
	.byte	$56
	.byte	$57
	.byte	$58
	.byte	$59
	.byte	$5A
	.byte	$5B
	.byte	$FF
	.byte	$FF
	.byte	$FF
	.byte	$5C
	.byte	$5D
	.byte	$5E
	.byte	$5F
	.byte	$FF
	.byte	$FF
	.byte	$60
	.byte	$FF
	.byte	$FF
	.byte	$61
	.byte	$62
	.byte	$63
	.byte	$64
	.byte	$65
	.byte	$16
	.byte	$66
	.byte	$67
	.byte	$68
	.byte	$FF
	.byte	$69
	.byte	$6A
	.byte	$6A
	.byte	$6B
	.byte	$6C
	.byte	$FF
	.byte	$FF
	.byte	$FF
	.byte	$6D
	.byte	$6A
	.byte	$6A
	.byte	$6E
	.byte	$6F
	.byte	$FF
	.byte	$FF
	.byte	$70
	.byte	$71
	.byte	$6A
	.byte	$6A
	.byte	$72
	.byte	$FF
	.byte	$FF
	.byte	$FF
	.byte	$73
	.byte	$74
	.byte	$75
	.byte	$76
	.byte	$77
	.byte	$19
	.byte	$78
	.byte	$FF
	.byte	$79
	.byte	$7A
	.byte	$FF
	.byte	$FF
	.byte	$7B
	.byte	$7C
	.byte	$7D
	.byte	$7D
	.byte	$7D
	.byte	$7E
	.byte	$FF
	.byte	$FF
	.byte	$7F
	.byte	$80
	.byte	$7D
	.byte	$7D
	.byte	$81
	.byte	$82
	.byte	$FF
	.byte	$FF
	.byte	$83
	.byte	$7D
	.byte	$7D
	.byte	$7D
	.byte	$84
	.byte	$85
	.byte	$FF
	.byte	$FF
	.byte	$86
	.byte	$87
	.byte	$88
	.byte	$7D
	.byte	$89
	.byte	$8A
	.byte	$FF
	.byte	$FF
	.byte	$8B
	.byte	$8C
	.byte	$8D
	.byte	$8E
	.byte	$8F
	.byte	$90
	.byte	$FF
	.byte	$FF
	.byte	$91
	.byte	$92
	.byte	$93
	.byte	$93
	.byte	$94
	.byte	$95
	.byte	$FF
	.byte	$FF
	.byte	$96
	.byte	$97
	.byte	$98
	.byte	$99
	.byte	$9A
	.byte	$9B
	.byte	$FF
	.byte	$FF
	.byte	$9C
	.byte	$9D
	.byte	$9E
	.byte	$99
	.byte	$9F
	.byte	$FF
	.byte	$FF
	.byte	$FF
	.byte	$FF
	.byte	$FF
	.byte	$FF
	.byte	$FF
	.byte	$FF
	.byte	$FF
	.byte	$FF
	.byte	$FF
	.byte	$FF
	.byte	$FF
	.byte	$FF
	.byte	$FF
	.byte	$FF
	.byte	$FF
	.byte	$FF
	.byte	$FF
	.byte	$FF
	.byte	$FF
	.byte	$FF
	.byte	$FF
	.byte	$FF
	.byte	$FF
	.byte	$FF
	.byte	$FF
	.byte	$FF
	.byte	$FF
	.byte	$FF
	.byte	$FF
	.byte	$FF
	.byte	$FF
	.byte	$FF
	.byte	$FF
	.byte	$FF
	.byte	$FF
	.byte	$FF
	.byte	$FF
	.byte	$FF
	.byte	$FF
	.byte	$FF
	.byte	$FF
	.byte	$FF
	.byte	$FF
	.byte	$FF
	.byte	$FF
	.byte	$FF
	.byte	$FF
	.byte	$FF
	.byte	$FF
	.byte	$FF
	.byte	$FF
	.byte	$FF
	.byte	$FF
	.byte	$FF
	.byte	$FF
	.byte	$FF
	.byte	$FF
	.byte	$FF
	.byte	$FF
	.byte	$FF
	.byte	$FF
	.byte	$FF
	.byte	$FF
	.byte	$FF
	.byte	$FF
	.byte	$FF
	.byte	$FF
	.byte	$FF
	.byte	$FF
	.byte	$FF
	.byte	$FF
	.byte	$FF
	.byte	$FF
	.byte	$FF
	.byte	$FF
	.byte	$FF
	.byte	$FF
	.byte	$FF
	.byte	$FF
	.byte	$FF
	.byte	$FF
	.byte	$FF
	.byte	$FF
	.byte	$FF
	.byte	$FF
	.byte	$FF
	.byte	$FF
	.byte	$FF
	.byte	$FF
	.byte	$FF
	.byte	$FF
	.byte	$FF
	.byte	$FF
	.byte	$FF
	.byte	$FF
	.byte	$FF
	.byte	$FF
	.byte	$FF
	.byte	$FF
	.byte	$FF
	.byte	$FF
	.byte	$FF
	.byte	$FF
	.byte	$A0
	.byte	$A1
	.byte	$A2
	.byte	$A2
	.byte	$A2
	.byte	$A2
	.byte	$A2
	.byte	$A2
	.byte	$A2
	.byte	$A2
	.byte	$A2
	.byte	$A2
	.byte	$A3
	.byte	$A4
	.byte	$FF
	.byte	$FF
	.byte	$FF
	.byte	$FF
	.byte	$FF
	.byte	$FF
	.byte	$FF
	.byte	$FF
	.byte	$FF
	.byte	$FF
	.byte	$FF
	.byte	$FF
	.byte	$FF
	.byte	$FF
	.byte	$FF
	.byte	$FF
	.byte	$FF
	.byte	$FF
	.byte	$A5
	.byte	$A6
	.byte	$A7
	.byte	$A8
	.byte	$FF
	.byte	$FF
	.byte	$FF
	.byte	$FF
	.byte	$FF
	.byte	$FF
	.byte	$A9
	.byte	$AA
	.byte	$AB
	.byte	$AC
	.byte	$FF
	.byte	$FF
	.byte	$FF
	.byte	$FF
	.byte	$FF
	.byte	$FF
	.byte	$FF
	.byte	$FF
	.byte	$FF
	.byte	$FF
	.byte	$FF
	.byte	$FF
	.byte	$FF
	.byte	$FF
	.byte	$FF
	.byte	$FF
	.byte	$FF
	.byte	$FF
	.byte	$A5
	.byte	$FF
	.byte	$AD
	.byte	$AE
	.byte	$AF
	.byte	$FF
	.byte	$FF
	.byte	$FF
	.byte	$FF
	.byte	$B0
	.byte	$B1
	.byte	$B2
	.byte	$B3
	.byte	$AC
	.byte	$FF
	.byte	$FF
	.byte	$FF
	.byte	$FF
	.byte	$FF
	.byte	$FF
	.byte	$FF
	.byte	$FF
	.byte	$FF
	.byte	$FF
	.byte	$FF
	.byte	$FF
	.byte	$FF
	.byte	$FF
	.byte	$FF
	.byte	$FF
	.byte	$FF
	.byte	$FF
	.byte	$A5
	.byte	$FF
	.byte	$B4
	.byte	$B5
	.byte	$B6
	.byte	$B7
	.byte	$B8
	.byte	$B9
	.byte	$BA
	.byte	$BB
	.byte	$BC
	.byte	$BD
	.byte	$B3
	.byte	$AC
	.byte	$FF
	.byte	$FF
	.byte	$FF
	.byte	$FF
	.byte	$FF
	.byte	$FF
	.byte	$FF
	.byte	$FF
	.byte	$FF
	.byte	$FF
	.byte	$FF
	.byte	$FF
	.byte	$FF
	.byte	$FF
	.byte	$FF
	.byte	$FF
	.byte	$FF
	.byte	$FF
	.byte	$A5
	.byte	$BE
	.byte	$FF
	.byte	$BF
	.byte	$C0
	.byte	$C1
	.byte	$C2
	.byte	$C3
	.byte	$C4
	.byte	$C5
	.byte	$C6
	.byte	$FF
	.byte	$C7
	.byte	$AC
	.byte	$FF
	.byte	$FF
	.byte	$FF
	.byte	$FF
	.byte	$FF
	.byte	$FF
	.byte	$FF
	.byte	$FF
	.byte	$FF
	.byte	$FF
	.byte	$FF
	.byte	$FF
	.byte	$FF
	.byte	$FF
	.byte	$FF
	.byte	$FF
	.byte	$FF
	.byte	$FF
	.byte	$A5
	.byte	$C8
	.byte	$FF
	.byte	$FF
	.byte	$FF
	.byte	$C9
	.byte	$CA
	.byte	$CB
	.byte	$FF
	.byte	$FF
	.byte	$FF
	.byte	$FF
	.byte	$CC
	.byte	$CD
	.byte	$FF
	.byte	$FF
	.byte	$FF
	.byte	$FF
	.byte	$FF
	.byte	$FF
	.byte	$FF
	.byte	$FF
	.byte	$FF
	.byte	$FF
	.byte	$FF
	.byte	$FF
	.byte	$FF
	.byte	$FF
	.byte	$FF
	.byte	$FF
	.byte	$FF
	.byte	$FF
	.byte	$CE
	.byte	$CF
	.byte	$FF
	.byte	$FF
	.byte	$D0
	.byte	$D1
	.byte	$D2
	.byte	$D3
	.byte	$D4
	.byte	$D5
	.byte	$FF
	.byte	$FF
	.byte	$D6
	.byte	$D7
	.byte	$FF
	.byte	$FF
	.byte	$FF
	.byte	$FF
	.byte	$FF
	.byte	$FF
	.byte	$FF
	.byte	$FF
	.byte	$FF
	.byte	$FF
	.byte	$FF
	.byte	$FF
	.byte	$FF
	.byte	$FF
	.byte	$FF
	.byte	$FF
	.byte	$FF
	.byte	$FF
	.byte	$D8
	.byte	$D9
	.byte	$FF
	.byte	$FF
	.byte	$DA
	.byte	$DB
	.byte	$DC
	.byte	$DD
	.byte	$DE
	.byte	$DF
	.byte	$FF
	.byte	$FF
	.byte	$E0
	.byte	$FF
	.byte	$FF
	.byte	$FF
	.byte	$FF
	.byte	$FF
	.byte	$FF
	.byte	$FF
	.byte	$FF
	.byte	$FF
	.byte	$FF
	.byte	$FF
	.byte	$FF
	.byte	$FF
	.byte	$FF
	.byte	$FF
	.byte	$FF
	.byte	$FF
	.byte	$FF
	.byte	$FF
	.byte	$FF
	.byte	$E1
	.byte	$E2
	.byte	$E3
	.byte	$E4
	.byte	$E5
	.byte	$E6
	.byte	$E7
	.byte	$E8
	.byte	$E9
	.byte	$FF
	.byte	$EA
	.byte	$EB
	.byte	$FF
	.byte	$FF
	.byte	$FF
	.byte	$FF
	.byte	$FF
	.byte	$FF
	.byte	$FF
	.byte	$FF
	.byte	$FF
	.byte	$FF
	.byte	$FF
	.byte	$FF
	.byte	$FF
	.byte	$FF
	.byte	$FF
	.byte	$FF
	.byte	$FF
	.byte	$FF
	.byte	$FF
	.byte	$FF
	.byte	$FF
	.byte	$EC
	.byte	$ED
	.byte	$EE
	.byte	$FF
	.byte	$FF
	.byte	$FF
	.byte	$FF
	.byte	$EF
	.byte	$F0
	.byte	$F1
	.byte	$FF
	.byte	$FF
	.byte	$FF
	.byte	$FF
	.byte	$FF
	.byte	$FF
	.byte	$FF
	.byte	$FF
	.byte	$FF
	.byte	$FF
	.byte	$FF
	.byte	$FF
	.byte	$FF
	.byte	$FF
	.byte	$FF
	.byte	$FF
	.byte	$FF
	.byte	$FF
	.byte	$FF
	.byte	$FF
	.byte	$FF
	.byte	$FF
	.byte	$FF
	.byte	$F2
	.byte	$F3
	.byte	$F4
	.byte	$F5
	.byte	$F6
	.byte	$F7
	.byte	$F8
	.byte	$FF
	.byte	$FF
	.byte	$FF
	.byte	$FF
	.byte	$FF
	.byte	$FF
	.byte	$FF
	.byte	$FF
	.byte	$FF
	.byte	$FF
	.byte	$FF
	.byte	$FF
	.byte	$FF
	.byte	$FF
	.byte	$FF
	.byte	$FF
	.byte	$FF
	.byte	$FF
	.byte	$FF
	.byte	$FF
	.byte	$FF
	.byte	$FF
	.byte	$FF
	.byte	$FF
	.byte	$FF
	.byte	$FF
	.byte	$FF
	.byte	$FF
	.byte	$FF
	.byte	$FF
	.byte	$FF
	.byte	$FF
	.byte	$FF
	.byte	$FF
	.byte	$FF
	.byte	$FF
	.byte	$FF
	.byte	$FF
	.byte	$FF
	.byte	$FF
	.byte	$FF
	.byte	$FF
	.byte	$FF
	.byte	$FF
	.byte	$FF
	.byte	$FF
	.byte	$FF
	.byte	$FF
	.byte	$FF
	.byte	$FF
	.byte	$FF
	.byte	$FF
	.byte	$FF
	.byte	$FF
	.byte	$FF
	.byte	$FF
	.byte	$FF
	.byte	$FF
	.byte	$FF
	.byte	$FF
	.byte	$FF
	.byte	$FF
	.byte	$FF
	.byte	$FF
	.byte	$FF
	.byte	$FF
	.byte	$FF
	.byte	$FF
	.byte	$FF
	.byte	$FF
	.byte	$FF
	.byte	$FF
	.byte	$FF
	.byte	$FF
	.byte	$FF
	.byte	$FF
	.byte	$FF
	.byte	$FF
	.byte	$FF
	.byte	$FF
	.byte	$FF
	.byte	$FF
	.byte	$FF
	.byte	$FF
	.byte	$FF
	.byte	$FF
	.byte	$FF
	.byte	$FF
	.byte	$FF
	.byte	$FF
	.byte	$FF
	.byte	$FF
	.byte	$FF
	.byte	$FF
	.byte	$FF
	.byte	$FF
	.byte	$FF
	.byte	$FF
	.byte	$FF
	.byte	$FF
	.byte	$FF
	.byte	$FF
	.byte	$FF
	.byte	$FF
	.byte	$FF
	.byte	$FF
	.byte	$FF
	.byte	$FF
	.byte	$FF
	.byte	$FF
	.byte	$FF
	.byte	$FF
	.byte	$FF
	.byte	$FF
	.byte	$FF
	.byte	$FF
	.byte	$FF
	.byte	$FF
	.byte	$FF
	.byte	$FF
	.byte	$FF
	.byte	$FF
	.byte	$FF
	.byte	$FF
	.byte	$FF
	.byte	$FF
	.byte	$FF
	.byte	$FF
	.byte	$FF
	.byte	$FF
	.byte	$FF
	.byte	$FF
	.byte	$FF
	.byte	$FF
	.byte	$FF
	.byte	$FF
	.byte	$FF
	.byte	$FF
	.byte	$FF
	.byte	$FF
	.byte	$FF
	.byte	$FF
	.byte	$FF
	.byte	$FF
	.byte	$FF
	.byte	$FF
	.byte	$FF
	.byte	$FF
	.byte	$FF
	.byte	$FF
	.byte	$FF
	.byte	$FF
	.byte	$FF
	.byte	$FF
	.byte	$FF
	.byte	$FF
	.byte	$FF
	.byte	$FF
	.byte	$FF
	.byte	$FF
	.byte	$FF
	.byte	$FF
	.byte	$FF
	.byte	$FF
	.byte	$FF
	.byte	$FF
	.byte	$FF
	.byte	$FF
	.byte	$FF
	.byte	$FF
	.byte	$FF
	.byte	$FF
	.byte	$FF
	.byte	$FF
	.byte	$FF
	.byte	$FF
	.byte	$FF
	.byte	$FF
	.byte	$FF
	.byte	$FF
	.byte	$FF
	.byte	$FF
	.byte	$FF
	.byte	$FF
	.byte	$FF
	.byte	$FF
	.byte	$FF
	.byte	$FF
	.byte	$FF
	.byte	$FF
	.byte	$FF
	.byte	$FF
	.byte	$FF
	.byte	$FF
	.byte	$FF
	.byte	$FF
	.byte	$FF
	.byte	$FF
	.byte	$FF
	.byte	$FF
	.byte	$FF
	.byte	$FF
	.byte	$FF
	.byte	$FF
	.byte	$FF
	.byte	$FF
	.byte	$FF
	.byte	$FF
	.byte	$FF
	.byte	$FF
	.byte	$FF
	.byte	$FF
	.byte	$FF
	.byte	$FF
	.byte	$FF
	.byte	$FF
	.byte	$FF
	.byte	$FF
	.byte	$FF
	.byte	$FF
	.byte	$FF
	.byte	$FF
	.byte	$FF
	.byte	$FF
	.byte	$FF
	.byte	$FF
	.byte	$FF
	.byte	$FF
	.byte	$FF
	.byte	$FF
	.byte	$FF
	.byte	$FF
	.byte	$FF
	.byte	$FF
	.byte	$FF
	.byte	$FF
	.byte	$FF
	.byte	$00
	.byte	$00
	.byte	$00
	.byte	$00
	.byte	$00
	.byte	$00
	.byte	$00
	.byte	$00
	.byte	$00
	.byte	$00
	.byte	$00
	.byte	$00
	.byte	$00
	.byte	$00
	.byte	$00
	.byte	$00
	.byte	$00
	.byte	$00
	.byte	$00
	.byte	$00
	.byte	$00
	.byte	$00
	.byte	$00
	.byte	$00
	.byte	$00
	.byte	$00
	.byte	$00
	.byte	$00
	.byte	$00
	.byte	$00
	.byte	$00
	.byte	$00
	.byte	$00
	.byte	$00
	.byte	$00
	.byte	$00
	.byte	$00
	.byte	$00
	.byte	$00
	.byte	$00
	.byte	$00
	.byte	$00
	.byte	$00
	.byte	$00
	.byte	$00
	.byte	$00
	.byte	$00
	.byte	$00
	.byte	$00
	.byte	$00
	.byte	$00
	.byte	$00
	.byte	$00
	.byte	$00
	.byte	$00
	.byte	$00
	.byte	$00
	.byte	$00
	.byte	$00
	.byte	$00
	.byte	$00
	.byte	$00
	.byte	$00
	.byte	$00
_endCastleA:
	.byte	$06
	.byte	$06
	.byte	$01
	.byte	$02
	.byte	$03
	.byte	$04
	.byte	$04
	.byte	$04
	.byte	$06
	.byte	$06
	.byte	$06
	.byte	$06
	.byte	$06
	.byte	$06
	.byte	$05
	.byte	$FF
	.byte	$FF
	.byte	$07
	.byte	$06
	.byte	$06
	.byte	$06
	.byte	$06
	.byte	$06
	.byte	$06
	.byte	$06
	.byte	$06
	.byte	$06
	.byte	$06
	.byte	$06
	.byte	$06
	.byte	$06
	.byte	$06
	.byte	$06
	.byte	$08
	.byte	$09
	.byte	$06
	.byte	$06
	.byte	$06
	.byte	$06
	.byte	$06
	.byte	$06
	.byte	$06
	.byte	$06
	.byte	$06
	.byte	$06
	.byte	$06
	.byte	$0A
	.byte	$FF
	.byte	$FF
	.byte	$07
	.byte	$06
	.byte	$06
	.byte	$06
	.byte	$06
	.byte	$06
	.byte	$06
	.byte	$06
	.byte	$06
	.byte	$06
	.byte	$06
	.byte	$06
	.byte	$06
	.byte	$06
	.byte	$06
	.byte	$06
	.byte	$06
	.byte	$06
	.byte	$06
	.byte	$06
	.byte	$06
	.byte	$06
	.byte	$06
	.byte	$06
	.byte	$06
	.byte	$06
	.byte	$06
	.byte	$06
	.byte	$06
	.byte	$0A
	.byte	$FF
	.byte	$FF
	.byte	$07
	.byte	$06
	.byte	$06
	.byte	$06
	.byte	$06
	.byte	$06
	.byte	$06
	.byte	$06
	.byte	$06
	.byte	$06
	.byte	$06
	.byte	$06
	.byte	$06
	.byte	$06
	.byte	$06
	.byte	$06
	.byte	$06
	.byte	$06
	.byte	$06
	.byte	$06
	.byte	$06
	.byte	$06
	.byte	$06
	.byte	$06
	.byte	$06
	.byte	$06
	.byte	$06
	.byte	$06
	.byte	$06
	.byte	$0A
	.byte	$FF
	.byte	$FF
	.byte	$0B
	.byte	$06
	.byte	$06
	.byte	$06
	.byte	$06
	.byte	$06
	.byte	$06
	.byte	$06
	.byte	$06
	.byte	$06
	.byte	$06
	.byte	$06
	.byte	$06
	.byte	$06
	.byte	$06
	.byte	$06
	.byte	$06
	.byte	$06
	.byte	$06
	.byte	$06
	.byte	$06
	.byte	$06
	.byte	$06
	.byte	$06
	.byte	$06
	.byte	$06
	.byte	$06
	.byte	$06
	.byte	$06
	.byte	$0C
	.byte	$FF
	.byte	$FF
	.byte	$0D
	.byte	$06
	.byte	$06
	.byte	$06
	.byte	$06
	.byte	$06
	.byte	$06
	.byte	$06
	.byte	$0E
	.byte	$0F
	.byte	$10
	.byte	$11
	.byte	$06
	.byte	$06
	.byte	$06
	.byte	$06
	.byte	$06
	.byte	$06
	.byte	$06
	.byte	$06
	.byte	$06
	.byte	$06
	.byte	$06
	.byte	$06
	.byte	$06
	.byte	$06
	.byte	$06
	.byte	$06
	.byte	$06
	.byte	$12
	.byte	$FF
	.byte	$FF
	.byte	$0D
	.byte	$06
	.byte	$06
	.byte	$06
	.byte	$06
	.byte	$06
	.byte	$06
	.byte	$06
	.byte	$13
	.byte	$14
	.byte	$15
	.byte	$16
	.byte	$06
	.byte	$06
	.byte	$06
	.byte	$06
	.byte	$06
	.byte	$06
	.byte	$06
	.byte	$06
	.byte	$06
	.byte	$06
	.byte	$06
	.byte	$04
	.byte	$17
	.byte	$18
	.byte	$19
	.byte	$1A
	.byte	$1A
	.byte	$12
	.byte	$1B
	.byte	$1B
	.byte	$0D
	.byte	$13
	.byte	$19
	.byte	$1C
	.byte	$1D
	.byte	$1D
	.byte	$1E
	.byte	$1F
	.byte	$20
	.byte	$21
	.byte	$06
	.byte	$06
	.byte	$06
	.byte	$06
	.byte	$06
	.byte	$06
	.byte	$06
	.byte	$06
	.byte	$06
	.byte	$06
	.byte	$06
	.byte	$06
	.byte	$06
	.byte	$06
	.byte	$06
	.byte	$06
	.byte	$22
	.byte	$23
	.byte	$24
	.byte	$25
	.byte	$26
	.byte	$26
	.byte	$27
	.byte	$20
	.byte	$24
	.byte	$23
	.byte	$22
	.byte	$22
	.byte	$06
	.byte	$06
	.byte	$06
	.byte	$06
	.byte	$06
	.byte	$06
	.byte	$06
	.byte	$06
	.byte	$06
	.byte	$06
	.byte	$06
	.byte	$06
	.byte	$06
	.byte	$06
	.byte	$06
	.byte	$06
	.byte	$0E
	.byte	$04
	.byte	$17
	.byte	$18
	.byte	$19
	.byte	$19
	.byte	$19
	.byte	$28
	.byte	$29
	.byte	$29
	.byte	$2A
	.byte	$19
	.byte	$1C
	.byte	$1D
	.byte	$03
	.byte	$06
	.byte	$06
	.byte	$06
	.byte	$06
	.byte	$06
	.byte	$06
	.byte	$06
	.byte	$06
	.byte	$06
	.byte	$06
	.byte	$06
	.byte	$06
	.byte	$06
	.byte	$06
	.byte	$06
	.byte	$06
	.byte	$06
	.byte	$06
	.byte	$06
	.byte	$06
	.byte	$06
	.byte	$2B
	.byte	$22
	.byte	$2C
	.byte	$26
	.byte	$2D
	.byte	$2D
	.byte	$27
	.byte	$22
	.byte	$06
	.byte	$06
	.byte	$06
	.byte	$06
	.byte	$06
	.byte	$06
	.byte	$06
	.byte	$06
	.byte	$06
	.byte	$06
	.byte	$06
	.byte	$06
	.byte	$06
	.byte	$06
	.byte	$06
	.byte	$06
	.byte	$06
	.byte	$06
	.byte	$06
	.byte	$06
	.byte	$06
	.byte	$06
	.byte	$06
	.byte	$06
	.byte	$06
	.byte	$06
	.byte	$06
	.byte	$2E
	.byte	$FF
	.byte	$FF
	.byte	$2F
	.byte	$06
	.byte	$06
	.byte	$06
	.byte	$06
	.byte	$06
	.byte	$06
	.byte	$06
	.byte	$06
	.byte	$06
	.byte	$06
	.byte	$06
	.byte	$06
	.byte	$06
	.byte	$06
	.byte	$06
	.byte	$06
	.byte	$06
	.byte	$06
	.byte	$06
	.byte	$06
	.byte	$06
	.byte	$06
	.byte	$06
	.byte	$06
	.byte	$06
	.byte	$06
	.byte	$06
	.byte	$01
	.byte	$2E
	.byte	$FF
	.byte	$FF
	.byte	$2F
	.byte	$06
	.byte	$06
	.byte	$06
	.byte	$06
	.byte	$06
	.byte	$06
	.byte	$06
	.byte	$06
	.byte	$06
	.byte	$06
	.byte	$06
	.byte	$06
	.byte	$06
	.byte	$06
	.byte	$06
	.byte	$06
	.byte	$06
	.byte	$06
	.byte	$06
	.byte	$06
	.byte	$06
	.byte	$06
	.byte	$06
	.byte	$06
	.byte	$06
	.byte	$06
	.byte	$06
	.byte	$30
	.byte	$2E
	.byte	$FF
	.byte	$FF
	.byte	$31
	.byte	$06
	.byte	$06
	.byte	$06
	.byte	$06
	.byte	$06
	.byte	$06
	.byte	$06
	.byte	$17
	.byte	$18
	.byte	$1A
	.byte	$06
	.byte	$06
	.byte	$06
	.byte	$06
	.byte	$01
	.byte	$1D
	.byte	$11
	.byte	$32
	.byte	$06
	.byte	$06
	.byte	$06
	.byte	$06
	.byte	$06
	.byte	$06
	.byte	$06
	.byte	$06
	.byte	$08
	.byte	$33
	.byte	$FF
	.byte	$FF
	.byte	$FF
	.byte	$31
	.byte	$34
	.byte	$06
	.byte	$06
	.byte	$06
	.byte	$06
	.byte	$06
	.byte	$06
	.byte	$06
	.byte	$30
	.byte	$35
	.byte	$36
	.byte	$06
	.byte	$06
	.byte	$06
	.byte	$05
	.byte	$37
	.byte	$38
	.byte	$22
	.byte	$39
	.byte	$3A
	.byte	$06
	.byte	$06
	.byte	$06
	.byte	$06
	.byte	$06
	.byte	$06
	.byte	$3B
	.byte	$3C
	.byte	$FF
	.byte	$FF
	.byte	$FF
	.byte	$FF
	.byte	$3D
	.byte	$06
	.byte	$06
	.byte	$06
	.byte	$06
	.byte	$06
	.byte	$06
	.byte	$06
	.byte	$08
	.byte	$35
	.byte	$3E
	.byte	$34
	.byte	$06
	.byte	$06
	.byte	$06
	.byte	$39
	.byte	$23
	.byte	$3F
	.byte	$1A
	.byte	$06
	.byte	$06
	.byte	$06
	.byte	$06
	.byte	$06
	.byte	$06
	.byte	$06
	.byte	$2B
	.byte	$40
	.byte	$FF
	.byte	$FF
	.byte	$FF
	.byte	$FF
	.byte	$0B
	.byte	$06
	.byte	$06
	.byte	$06
	.byte	$06
	.byte	$06
	.byte	$06
	.byte	$06
	.byte	$41
	.byte	$21
	.byte	$06
	.byte	$42
	.byte	$06
	.byte	$06
	.byte	$06
	.byte	$06
	.byte	$06
	.byte	$43
	.byte	$44
	.byte	$45
	.byte	$0E
	.byte	$46
	.byte	$47
	.byte	$48
	.byte	$32
	.byte	$06
	.byte	$06
	.byte	$49
	.byte	$FF
	.byte	$FF
	.byte	$FF
	.byte	$FF
	.byte	$2F
	.byte	$06
	.byte	$06
	.byte	$06
	.byte	$06
	.byte	$2B
	.byte	$42
	.byte	$4A
	.byte	$4B
	.byte	$4C
	.byte	$06
	.byte	$06
	.byte	$06
	.byte	$06
	.byte	$06
	.byte	$06
	.byte	$06
	.byte	$4D
	.byte	$4E
	.byte	$4F
	.byte	$4C
	.byte	$06
	.byte	$06
	.byte	$06
	.byte	$17
	.byte	$18
	.byte	$19
	.byte	$2E
	.byte	$FF
	.byte	$50
	.byte	$FF
	.byte	$FF
	.byte	$FF
	.byte	$32
	.byte	$03
	.byte	$3A
	.byte	$06
	.byte	$06
	.byte	$43
	.byte	$4E
	.byte	$4E
	.byte	$51
	.byte	$06
	.byte	$06
	.byte	$06
	.byte	$06
	.byte	$06
	.byte	$06
	.byte	$52
	.byte	$53
	.byte	$4E
	.byte	$4E
	.byte	$54
	.byte	$55
	.byte	$06
	.byte	$06
	.byte	$06
	.byte	$06
	.byte	$2B
	.byte	$2E
	.byte	$FF
	.byte	$56
	.byte	$57
	.byte	$FF
	.byte	$58
	.byte	$06
	.byte	$06
	.byte	$06
	.byte	$06
	.byte	$59
	.byte	$5A
	.byte	$4E
	.byte	$4F
	.byte	$5B
	.byte	$5C
	.byte	$06
	.byte	$06
	.byte	$06
	.byte	$06
	.byte	$06
	.byte	$4D
	.byte	$4E
	.byte	$4E
	.byte	$4E
	.byte	$4E
	.byte	$5D
	.byte	$06
	.byte	$06
	.byte	$06
	.byte	$06
	.byte	$06
	.byte	$5E
	.byte	$5F
	.byte	$60
	.byte	$61
	.byte	$FF
	.byte	$0D
	.byte	$06
	.byte	$06
	.byte	$06
	.byte	$06
	.byte	$62
	.byte	$4E
	.byte	$4E
	.byte	$4E
	.byte	$4E
	.byte	$51
	.byte	$06
	.byte	$06
	.byte	$06
	.byte	$06
	.byte	$06
	.byte	$06
	.byte	$63
	.byte	$64
	.byte	$4E
	.byte	$4E
	.byte	$4F
	.byte	$65
	.byte	$06
	.byte	$43
	.byte	$55
	.byte	$06
	.byte	$66
	.byte	$67
	.byte	$68
	.byte	$4E
	.byte	$69
	.byte	$07
	.byte	$43
	.byte	$06
	.byte	$06
	.byte	$06
	.byte	$6A
	.byte	$4E
	.byte	$4E
	.byte	$4E
	.byte	$6B
	.byte	$06
	.byte	$06
	.byte	$06
	.byte	$06
	.byte	$06
	.byte	$06
	.byte	$06
	.byte	$4D
	.byte	$4E
	.byte	$4E
	.byte	$4E
	.byte	$4E
	.byte	$54
	.byte	$6C
	.byte	$6D
	.byte	$4E
	.byte	$6E
	.byte	$6F
	.byte	$70
	.byte	$71
	.byte	$72
	.byte	$73
	.byte	$74
	.byte	$4E
	.byte	$75
	.byte	$76
	.byte	$5A
	.byte	$4E
	.byte	$4E
	.byte	$4E
	.byte	$4E
	.byte	$77
	.byte	$06
	.byte	$34
	.byte	$06
	.byte	$06
	.byte	$06
	.byte	$06
	.byte	$06
	.byte	$06
	.byte	$78
	.byte	$6D
	.byte	$4E
	.byte	$4E
	.byte	$4E
	.byte	$6D
	.byte	$4E
	.byte	$4E
	.byte	$4E
	.byte	$79
	.byte	$7A
	.byte	$4E
	.byte	$4E
	.byte	$7B
	.byte	$7C
	.byte	$4E
	.byte	$4E
	.byte	$7D
	.byte	$4E
	.byte	$4E
	.byte	$4E
	.byte	$7E
	.byte	$7F
	.byte	$06
	.byte	$08
	.byte	$80
	.byte	$06
	.byte	$06
	.byte	$34
	.byte	$06
	.byte	$3F
	.byte	$48
	.byte	$34
	.byte	$81
	.byte	$82
	.byte	$83
	.byte	$84
	.byte	$4E
	.byte	$85
	.byte	$4E
	.byte	$4E
	.byte	$86
	.byte	$7A
	.byte	$4E
	.byte	$4E
	.byte	$87
	.byte	$88
	.byte	$4E
	.byte	$4E
	.byte	$7A
	.byte	$4E
	.byte	$89
	.byte	$8A
	.byte	$82
	.byte	$06
	.byte	$06
	.byte	$8B
	.byte	$35
	.byte	$32
	.byte	$06
	.byte	$8C
	.byte	$3A
	.byte	$06
	.byte	$2B
	.byte	$23
	.byte	$24
	.byte	$39
	.byte	$8D
	.byte	$8E
	.byte	$8F
	.byte	$90
	.byte	$4E
	.byte	$4E
	.byte	$4E
	.byte	$4E
	.byte	$91
	.byte	$4E
	.byte	$4E
	.byte	$4E
	.byte	$4E
	.byte	$4E
	.byte	$92
	.byte	$93
	.byte	$06
	.byte	$06
	.byte	$06
	.byte	$06
	.byte	$8B
	.byte	$35
	.byte	$35
	.byte	$35
	.byte	$11
	.byte	$20
	.byte	$94
	.byte	$47
	.byte	$95
	.byte	$4C
	.byte	$06
	.byte	$96
	.byte	$4E
	.byte	$4E
	.byte	$97
	.byte	$4E
	.byte	$4E
	.byte	$4E
	.byte	$4E
	.byte	$98
	.byte	$99
	.byte	$9A
	.byte	$4E
	.byte	$4E
	.byte	$4E
	.byte	$4E
	.byte	$9B
	.byte	$4E
	.byte	$75
	.byte	$65
	.byte	$06
	.byte	$06
	.byte	$05
	.byte	$35
	.byte	$35
	.byte	$15
	.byte	$9C
	.byte	$06
	.byte	$9D
	.byte	$4E
	.byte	$4E
	.byte	$7E
	.byte	$9E
	.byte	$1D
	.byte	$9F
	.byte	$4E
	.byte	$4E
	.byte	$4E
	.byte	$4E
	.byte	$A0
	.byte	$A1
	.byte	$A2
	.byte	$A3
	.byte	$A2
	.byte	$A3
	.byte	$A4
	.byte	$4E
	.byte	$4E
	.byte	$6D
	.byte	$4E
	.byte	$A5
	.byte	$1E
	.byte	$35
	.byte	$A6
	.byte	$A7
	.byte	$35
	.byte	$35
	.byte	$A8
	.byte	$35
	.byte	$02
	.byte	$1D
	.byte	$A9
	.byte	$AA
	.byte	$4E
	.byte	$4E
	.byte	$AB
	.byte	$6A
	.byte	$4E
	.byte	$4E
	.byte	$4E
	.byte	$4E
	.byte	$FF
	.byte	$A2
	.byte	$FF
	.byte	$FF
	.byte	$FF
	.byte	$FF
	.byte	$AC
	.byte	$4E
	.byte	$4E
	.byte	$4E
	.byte	$4E
	.byte	$AD
	.byte	$AE
	.byte	$AF
	.byte	$4E
	.byte	$4E
	.byte	$B0
	.byte	$B1
	.byte	$35
	.byte	$35
	.byte	$35
	.byte	$35
	.byte	$8B
	.byte	$B2
	.byte	$4E
	.byte	$B3
	.byte	$4E
	.byte	$4E
	.byte	$4E
	.byte	$4E
	.byte	$4E
	.byte	$4E
	.byte	$B4
	.byte	$FF
	.byte	$FF
	.byte	$FF
	.byte	$FF
	.byte	$FF
	.byte	$B5
	.byte	$4E
	.byte	$4E
	.byte	$4E
	.byte	$4E
	.byte	$4E
	.byte	$4E
	.byte	$4E
	.byte	$B6
	.byte	$B7
	.byte	$B8
	.byte	$B9
	.byte	$35
	.byte	$35
	.byte	$35
	.byte	$35
	.byte	$35
	.byte	$35
	.byte	$35
	.byte	$BA
	.byte	$BB
	.byte	$BC
	.byte	$BD
	.byte	$4E
	.byte	$4E
	.byte	$4E
	.byte	$4E
	.byte	$FF
	.byte	$FF
	.byte	$FF
	.byte	$FF
	.byte	$FF
	.byte	$B5
	.byte	$4E
	.byte	$4E
	.byte	$4E
	.byte	$4E
	.byte	$4E
	.byte	$BE
	.byte	$BB
	.byte	$BF
	.byte	$B9
	.byte	$35
	.byte	$35
	.byte	$35
	.byte	$35
	.byte	$00
	.byte	$00
	.byte	$00
	.byte	$00
	.byte	$00
	.byte	$00
	.byte	$00
	.byte	$00
	.byte	$00
	.byte	$00
	.byte	$00
	.byte	$00
	.byte	$00
	.byte	$00
	.byte	$00
	.byte	$00
	.byte	$00
	.byte	$00
	.byte	$00
	.byte	$00
	.byte	$00
	.byte	$00
	.byte	$00
	.byte	$00
	.byte	$00
	.byte	$00
	.byte	$00
	.byte	$00
	.byte	$00
	.byte	$00
	.byte	$00
	.byte	$00
	.byte	$00
	.byte	$00
	.byte	$00
	.byte	$00
	.byte	$00
	.byte	$00
	.byte	$00
	.byte	$00
	.byte	$00
	.byte	$00
	.byte	$00
	.byte	$00
	.byte	$00
	.byte	$00
	.byte	$00
	.byte	$00
	.byte	$00
	.byte	$00
	.byte	$00
	.byte	$00
	.byte	$00
	.byte	$00
	.byte	$00
	.byte	$00
	.byte	$00
	.byte	$00
	.byte	$00
	.byte	$00
	.byte	$00
	.byte	$00
	.byte	$00
	.byte	$00
_endCastleB:
	.byte	$FF
	.byte	$FF
	.byte	$FF
	.byte	$FF
	.byte	$FF
	.byte	$FF
	.byte	$FF
	.byte	$FF
	.byte	$FF
	.byte	$FF
	.byte	$FF
	.byte	$FF
	.byte	$FF
	.byte	$FF
	.byte	$FF
	.byte	$FF
	.byte	$FF
	.byte	$FF
	.byte	$FF
	.byte	$FF
	.byte	$FF
	.byte	$FF
	.byte	$FF
	.byte	$FF
	.byte	$FF
	.byte	$FF
	.byte	$FF
	.byte	$FF
	.byte	$FF
	.byte	$FF
	.byte	$FF
	.byte	$FF
	.byte	$FF
	.byte	$FF
	.byte	$FF
	.byte	$FF
	.byte	$FF
	.byte	$FF
	.byte	$FF
	.byte	$FF
	.byte	$FF
	.byte	$FF
	.byte	$FF
	.byte	$FF
	.byte	$FF
	.byte	$FF
	.byte	$FF
	.byte	$FF
	.byte	$FF
	.byte	$FF
	.byte	$FF
	.byte	$FF
	.byte	$FF
	.byte	$FF
	.byte	$FF
	.byte	$FF
	.byte	$FF
	.byte	$FF
	.byte	$FF
	.byte	$FF
	.byte	$FF
	.byte	$FF
	.byte	$FF
	.byte	$FF
	.byte	$FF
	.byte	$FF
	.byte	$FF
	.byte	$FF
	.byte	$FF
	.byte	$FF
	.byte	$FF
	.byte	$FF
	.byte	$FF
	.byte	$FF
	.byte	$FF
	.byte	$FF
	.byte	$FF
	.byte	$FF
	.byte	$FF
	.byte	$FF
	.byte	$FF
	.byte	$FF
	.byte	$FF
	.byte	$FF
	.byte	$FF
	.byte	$FF
	.byte	$FF
	.byte	$FF
	.byte	$FF
	.byte	$FF
	.byte	$FF
	.byte	$FF
	.byte	$FF
	.byte	$FF
	.byte	$FF
	.byte	$FF
	.byte	$FF
	.byte	$FF
	.byte	$FF
	.byte	$FF
	.byte	$FF
	.byte	$FF
	.byte	$FF
	.byte	$FF
	.byte	$FF
	.byte	$FF
	.byte	$FF
	.byte	$FF
	.byte	$FF
	.byte	$FF
	.byte	$FF
	.byte	$FF
	.byte	$FF
	.byte	$FF
	.byte	$FF
	.byte	$FF
	.byte	$FF
	.byte	$FF
	.byte	$FF
	.byte	$FF
	.byte	$FF
	.byte	$FF
	.byte	$FF
	.byte	$FF
	.byte	$FF
	.byte	$FF
	.byte	$FF
	.byte	$FF
	.byte	$FF
	.byte	$FF
	.byte	$FF
	.byte	$FF
	.byte	$FF
	.byte	$FF
	.byte	$FF
	.byte	$FF
	.byte	$FF
	.byte	$FF
	.byte	$FF
	.byte	$FF
	.byte	$FF
	.byte	$FF
	.byte	$FF
	.byte	$FF
	.byte	$FF
	.byte	$FF
	.byte	$FF
	.byte	$FF
	.byte	$FF
	.byte	$FF
	.byte	$FF
	.byte	$FF
	.byte	$FF
	.byte	$FF
	.byte	$FF
	.byte	$FF
	.byte	$FF
	.byte	$FF
	.byte	$FF
	.byte	$FF
	.byte	$FF
	.byte	$FF
	.byte	$FF
	.byte	$FF
	.byte	$FF
	.byte	$FF
	.byte	$FF
	.byte	$FF
	.byte	$FF
	.byte	$FF
	.byte	$FF
	.byte	$FF
	.byte	$FF
	.byte	$FF
	.byte	$FF
	.byte	$FF
	.byte	$FF
	.byte	$FF
	.byte	$FF
	.byte	$FF
	.byte	$FF
	.byte	$FF
	.byte	$FF
	.byte	$FF
	.byte	$FF
	.byte	$FF
	.byte	$FF
	.byte	$FF
	.byte	$FF
	.byte	$FF
	.byte	$FF
	.byte	$FF
	.byte	$FF
	.byte	$FF
	.byte	$FF
	.byte	$FF
	.byte	$FF
	.byte	$FF
	.byte	$FF
	.byte	$FF
	.byte	$FF
	.byte	$FF
	.byte	$FF
	.byte	$FF
	.byte	$FF
	.byte	$FF
	.byte	$FF
	.byte	$FF
	.byte	$FF
	.byte	$FF
	.byte	$FF
	.byte	$FF
	.byte	$FF
	.byte	$FF
	.byte	$FF
	.byte	$FF
	.byte	$FF
	.byte	$FF
	.byte	$FF
	.byte	$FF
	.byte	$FF
	.byte	$FF
	.byte	$FF
	.byte	$FF
	.byte	$FF
	.byte	$FF
	.byte	$FF
	.byte	$FF
	.byte	$FF
	.byte	$FF
	.byte	$FF
	.byte	$FF
	.byte	$FF
	.byte	$FF
	.byte	$FF
	.byte	$FF
	.byte	$FF
	.byte	$FF
	.byte	$FF
	.byte	$FF
	.byte	$FF
	.byte	$FF
	.byte	$FF
	.byte	$FF
	.byte	$FF
	.byte	$FF
	.byte	$FF
	.byte	$FF
	.byte	$FF
	.byte	$FF
	.byte	$FF
	.byte	$FF
	.byte	$FF
	.byte	$FF
	.byte	$FF
	.byte	$FF
	.byte	$FF
	.byte	$FF
	.byte	$FF
	.byte	$FF
	.byte	$FF
	.byte	$FF
	.byte	$FF
	.byte	$FF
	.byte	$FF
	.byte	$FF
	.byte	$FF
	.byte	$FF
	.byte	$FF
	.byte	$FF
	.byte	$FF
	.byte	$FF
	.byte	$FF
	.byte	$FF
	.byte	$FF
	.byte	$FF
	.byte	$FF
	.byte	$FF
	.byte	$FF
	.byte	$FF
	.byte	$FF
	.byte	$FF
	.byte	$FF
	.byte	$FF
	.byte	$FF
	.byte	$FF
	.byte	$FF
	.byte	$FF
	.byte	$FF
	.byte	$FF
	.byte	$FF
	.byte	$FF
	.byte	$FF
	.byte	$FF
	.byte	$FF
	.byte	$FF
	.byte	$FF
	.byte	$FF
	.byte	$FF
	.byte	$FF
	.byte	$FF
	.byte	$FF
	.byte	$FF
	.byte	$FF
	.byte	$FF
	.byte	$FF
	.byte	$FF
	.byte	$FF
	.byte	$FF
	.byte	$FF
	.byte	$FF
	.byte	$FF
	.byte	$FF
	.byte	$FF
	.byte	$FF
	.byte	$FF
	.byte	$FF
	.byte	$FF
	.byte	$FF
	.byte	$FF
	.byte	$C1
	.byte	$C1
	.byte	$C1
	.byte	$C1
	.byte	$C1
	.byte	$C2
	.byte	$C3
	.byte	$C1
	.byte	$C1
	.byte	$C1
	.byte	$C1
	.byte	$C1
	.byte	$C1
	.byte	$C1
	.byte	$FF
	.byte	$FF
	.byte	$FF
	.byte	$FF
	.byte	$FF
	.byte	$FF
	.byte	$FF
	.byte	$FF
	.byte	$FF
	.byte	$FF
	.byte	$FF
	.byte	$FF
	.byte	$FF
	.byte	$FF
	.byte	$FF
	.byte	$FF
	.byte	$FF
	.byte	$FF
	.byte	$C1
	.byte	$C1
	.byte	$C1
	.byte	$C1
	.byte	$C1
	.byte	$C2
	.byte	$C3
	.byte	$C1
	.byte	$C1
	.byte	$C1
	.byte	$C1
	.byte	$C1
	.byte	$C1
	.byte	$C1
	.byte	$FF
	.byte	$FF
	.byte	$FF
	.byte	$FF
	.byte	$FF
	.byte	$FF
	.byte	$FF
	.byte	$FF
	.byte	$FF
	.byte	$FF
	.byte	$FF
	.byte	$FF
	.byte	$FF
	.byte	$FF
	.byte	$FF
	.byte	$FF
	.byte	$FF
	.byte	$FF
	.byte	$C1
	.byte	$C1
	.byte	$C1
	.byte	$C1
	.byte	$C1
	.byte	$C2
	.byte	$C3
	.byte	$C1
	.byte	$C1
	.byte	$C1
	.byte	$C1
	.byte	$C1
	.byte	$C1
	.byte	$C1
	.byte	$FF
	.byte	$FF
	.byte	$FF
	.byte	$FF
	.byte	$FF
	.byte	$FF
	.byte	$FF
	.byte	$FF
	.byte	$FF
	.byte	$FF
	.byte	$FF
	.byte	$FF
	.byte	$FF
	.byte	$FF
	.byte	$FF
	.byte	$FF
	.byte	$FF
	.byte	$FF
	.byte	$C1
	.byte	$C1
	.byte	$C1
	.byte	$C1
	.byte	$C1
	.byte	$C2
	.byte	$C3
	.byte	$C1
	.byte	$C1
	.byte	$C1
	.byte	$C1
	.byte	$C1
	.byte	$C1
	.byte	$C1
	.byte	$FF
	.byte	$FF
	.byte	$FF
	.byte	$FF
	.byte	$FF
	.byte	$FF
	.byte	$FF
	.byte	$FF
	.byte	$FF
	.byte	$FF
	.byte	$FF
	.byte	$FF
	.byte	$FF
	.byte	$FF
	.byte	$FF
	.byte	$FF
	.byte	$FF
	.byte	$FF
	.byte	$C1
	.byte	$C1
	.byte	$C1
	.byte	$C1
	.byte	$C1
	.byte	$C2
	.byte	$C3
	.byte	$C1
	.byte	$C1
	.byte	$C1
	.byte	$C1
	.byte	$C1
	.byte	$C1
	.byte	$C1
	.byte	$FF
	.byte	$FF
	.byte	$FF
	.byte	$FF
	.byte	$FF
	.byte	$FF
	.byte	$FF
	.byte	$FF
	.byte	$FF
	.byte	$FF
	.byte	$FF
	.byte	$FF
	.byte	$FF
	.byte	$FF
	.byte	$FF
	.byte	$FF
	.byte	$FF
	.byte	$FF
	.byte	$C1
	.byte	$C1
	.byte	$C1
	.byte	$C1
	.byte	$C1
	.byte	$C2
	.byte	$C3
	.byte	$C1
	.byte	$C1
	.byte	$C1
	.byte	$C1
	.byte	$C1
	.byte	$C1
	.byte	$C1
	.byte	$FF
	.byte	$FF
	.byte	$FF
	.byte	$FF
	.byte	$FF
	.byte	$FF
	.byte	$FF
	.byte	$FF
	.byte	$FF
	.byte	$FF
	.byte	$FF
	.byte	$FF
	.byte	$FF
	.byte	$FF
	.byte	$FF
	.byte	$FF
	.byte	$FF
	.byte	$FF
	.byte	$C1
	.byte	$C1
	.byte	$C1
	.byte	$C1
	.byte	$C1
	.byte	$C2
	.byte	$C3
	.byte	$C1
	.byte	$C1
	.byte	$C1
	.byte	$C1
	.byte	$C1
	.byte	$C1
	.byte	$C1
	.byte	$FF
	.byte	$FF
	.byte	$FF
	.byte	$FF
	.byte	$FF
	.byte	$FF
	.byte	$FF
	.byte	$FF
	.byte	$FF
	.byte	$FF
	.byte	$FF
	.byte	$FF
	.byte	$FF
	.byte	$FF
	.byte	$FF
	.byte	$FF
	.byte	$FF
	.byte	$FF
	.byte	$C1
	.byte	$C1
	.byte	$C1
	.byte	$C1
	.byte	$C1
	.byte	$C2
	.byte	$C4
	.byte	$C1
	.byte	$C1
	.byte	$C1
	.byte	$C1
	.byte	$C1
	.byte	$C1
	.byte	$C1
	.byte	$FF
	.byte	$FF
	.byte	$FF
	.byte	$FF
	.byte	$FF
	.byte	$FF
	.byte	$FF
	.byte	$FF
	.byte	$FF
	.byte	$FF
	.byte	$FF
	.byte	$FF
	.byte	$FF
	.byte	$FF
	.byte	$FF
	.byte	$FF
	.byte	$FF
	.byte	$FF
	.byte	$C1
	.byte	$C1
	.byte	$C1
	.byte	$C5
	.byte	$C6
	.byte	$C7
	.byte	$C8
	.byte	$C9
	.byte	$CA
	.byte	$CB
	.byte	$CC
	.byte	$C1
	.byte	$C1
	.byte	$C1
	.byte	$FF
	.byte	$FF
	.byte	$FF
	.byte	$FF
	.byte	$FF
	.byte	$FF
	.byte	$FF
	.byte	$FF
	.byte	$FF
	.byte	$FF
	.byte	$FF
	.byte	$FF
	.byte	$FF
	.byte	$FF
	.byte	$FF
	.byte	$FF
	.byte	$FF
	.byte	$FF
	.byte	$C1
	.byte	$C1
	.byte	$C1
	.byte	$C1
	.byte	$CD
	.byte	$C2
	.byte	$C3
	.byte	$C1
	.byte	$CE
	.byte	$CF
	.byte	$D0
	.byte	$C1
	.byte	$C1
	.byte	$C1
	.byte	$FF
	.byte	$FF
	.byte	$FF
	.byte	$FF
	.byte	$FF
	.byte	$FF
	.byte	$FF
	.byte	$FF
	.byte	$FF
	.byte	$FF
	.byte	$FF
	.byte	$FF
	.byte	$FF
	.byte	$FF
	.byte	$FF
	.byte	$FF
	.byte	$FF
	.byte	$FF
	.byte	$C1
	.byte	$C1
	.byte	$C1
	.byte	$C1
	.byte	$D1
	.byte	$C2
	.byte	$C3
	.byte	$D2
	.byte	$D3
	.byte	$C1
	.byte	$C1
	.byte	$C1
	.byte	$C1
	.byte	$C1
	.byte	$FF
	.byte	$FF
	.byte	$FF
	.byte	$FF
	.byte	$FF
	.byte	$FF
	.byte	$FF
	.byte	$FF
	.byte	$FF
	.byte	$FF
	.byte	$FF
	.byte	$FF
	.byte	$FF
	.byte	$FF
	.byte	$FF
	.byte	$FF
	.byte	$FF
	.byte	$FF
	.byte	$C1
	.byte	$C1
	.byte	$C1
	.byte	$CE
	.byte	$D4
	.byte	$FF
	.byte	$D5
	.byte	$C1
	.byte	$C1
	.byte	$C1
	.byte	$C1
	.byte	$D6
	.byte	$C1
	.byte	$C1
	.byte	$FF
	.byte	$FF
	.byte	$FF
	.byte	$FF
	.byte	$FF
	.byte	$FF
	.byte	$FF
	.byte	$FF
	.byte	$FF
	.byte	$FF
	.byte	$FF
	.byte	$FF
	.byte	$FF
	.byte	$FF
	.byte	$FF
	.byte	$FF
	.byte	$FF
	.byte	$FF
	.byte	$C1
	.byte	$C1
	.byte	$D7
	.byte	$C1
	.byte	$D8
	.byte	$FF
	.byte	$D9
	.byte	$C1
	.byte	$C1
	.byte	$C1
	.byte	$C1
	.byte	$DA
	.byte	$C1
	.byte	$C1
	.byte	$FF
	.byte	$FF
	.byte	$FF
	.byte	$FF
	.byte	$FF
	.byte	$FF
	.byte	$FF
	.byte	$FF
	.byte	$FF
	.byte	$FF
	.byte	$FF
	.byte	$FF
	.byte	$FF
	.byte	$FF
	.byte	$FF
	.byte	$FF
	.byte	$FF
	.byte	$FF
	.byte	$DB
	.byte	$C1
	.byte	$C1
	.byte	$C1
	.byte	$DC
	.byte	$FF
	.byte	$DD
	.byte	$C1
	.byte	$C1
	.byte	$C1
	.byte	$C1
	.byte	$C1
	.byte	$C1
	.byte	$C1
	.byte	$FF
	.byte	$FF
	.byte	$FF
	.byte	$FF
	.byte	$FF
	.byte	$FF
	.byte	$FF
	.byte	$FF
	.byte	$FF
	.byte	$FF
	.byte	$FF
	.byte	$FF
	.byte	$FF
	.byte	$FF
	.byte	$FF
	.byte	$FF
	.byte	$FF
	.byte	$FF
	.byte	$DE
	.byte	$DF
	.byte	$C1
	.byte	$C1
	.byte	$E0
	.byte	$FF
	.byte	$FF
	.byte	$E1
	.byte	$E2
	.byte	$E3
	.byte	$E4
	.byte	$CC
	.byte	$C1
	.byte	$C1
	.byte	$FF
	.byte	$FF
	.byte	$FF
	.byte	$FF
	.byte	$FF
	.byte	$FF
	.byte	$FF
	.byte	$FF
	.byte	$FF
	.byte	$FF
	.byte	$FF
	.byte	$FF
	.byte	$FF
	.byte	$FF
	.byte	$FF
	.byte	$FF
	.byte	$FF
	.byte	$FF
	.byte	$CC
	.byte	$E5
	.byte	$C1
	.byte	$E6
	.byte	$E7
	.byte	$FF
	.byte	$FF
	.byte	$D3
	.byte	$C1
	.byte	$C1
	.byte	$E5
	.byte	$E8
	.byte	$E9
	.byte	$C1
	.byte	$FF
	.byte	$FF
	.byte	$FF
	.byte	$FF
	.byte	$FF
	.byte	$FF
	.byte	$FF
	.byte	$FF
	.byte	$FF
	.byte	$FF
	.byte	$FF
	.byte	$FF
	.byte	$FF
	.byte	$FF
	.byte	$FF
	.byte	$FF
	.byte	$FF
	.byte	$FF
	.byte	$EA
	.byte	$EB
	.byte	$C1
	.byte	$C1
	.byte	$EC
	.byte	$FF
	.byte	$ED
	.byte	$C1
	.byte	$C1
	.byte	$EE
	.byte	$EF
	.byte	$F0
	.byte	$D3
	.byte	$C1
	.byte	$FF
	.byte	$FF
	.byte	$FF
	.byte	$FF
	.byte	$FF
	.byte	$FF
	.byte	$FF
	.byte	$FF
	.byte	$FF
	.byte	$FF
	.byte	$FF
	.byte	$FF
	.byte	$FF
	.byte	$FF
	.byte	$FF
	.byte	$FF
	.byte	$FF
	.byte	$FF
	.byte	$F1
	.byte	$F2
	.byte	$F2
	.byte	$F3
	.byte	$F4
	.byte	$F5
	.byte	$F6
	.byte	$F7
	.byte	$F8
	.byte	$F9
	.byte	$F9
	.byte	$FA
	.byte	$C1
	.byte	$FB
	.byte	$FF
	.byte	$FF
	.byte	$FF
	.byte	$FF
	.byte	$FF
	.byte	$FF
	.byte	$FF
	.byte	$FF
	.byte	$FF
	.byte	$FF
	.byte	$FF
	.byte	$FF
	.byte	$FF
	.byte	$FF
	.byte	$FF
	.byte	$FF
	.byte	$FF
	.byte	$FF
	.byte	$FC
	.byte	$FC
	.byte	$FC
	.byte	$FC
	.byte	$FC
	.byte	$FC
	.byte	$FC
	.byte	$FC
	.byte	$F1
	.byte	$FC
	.byte	$FC
	.byte	$FD
	.byte	$FE
	.byte	$C0
	.byte	$FF
	.byte	$FF
	.byte	$FF
	.byte	$FF
	.byte	$FF
	.byte	$FF
	.byte	$FF
	.byte	$FF
	.byte	$FF
	.byte	$FF
	.byte	$FF
	.byte	$FF
	.byte	$FF
	.byte	$FF
	.byte	$FF
	.byte	$FF
	.byte	$FF
	.byte	$FF
	.byte	$FC
	.byte	$FC
	.byte	$FC
	.byte	$FC
	.byte	$FC
	.byte	$FC
	.byte	$FC
	.byte	$FC
	.byte	$FC
	.byte	$FC
	.byte	$FC
	.byte	$FC
	.byte	$FC
	.byte	$FC
	.byte	$FF
	.byte	$FF
	.byte	$FF
	.byte	$FF
	.byte	$FF
	.byte	$FF
	.byte	$FF
	.byte	$FF
	.byte	$FF
	.byte	$FF
	.byte	$FF
	.byte	$FF
	.byte	$FF
	.byte	$FF
	.byte	$FF
	.byte	$FF
	.byte	$FF
	.byte	$FF
	.byte	$00
	.byte	$00
	.byte	$00
	.byte	$00
	.byte	$00
	.byte	$00
	.byte	$00
	.byte	$00
	.byte	$00
	.byte	$00
	.byte	$00
	.byte	$00
	.byte	$00
	.byte	$00
	.byte	$00
	.byte	$00
	.byte	$00
	.byte	$00
	.byte	$00
	.byte	$00
	.byte	$00
	.byte	$00
	.byte	$00
	.byte	$00
	.byte	$00
	.byte	$00
	.byte	$00
	.byte	$00
	.byte	$00
	.byte	$00
	.byte	$00
	.byte	$00
	.byte	$00
	.byte	$00
	.byte	$00
	.byte	$00
	.byte	$00
	.byte	$00
	.byte	$00
	.byte	$00
	.byte	$00
	.byte	$00
	.byte	$00
	.byte	$00
	.byte	$00
	.byte	$00
	.byte	$00
	.byte	$00
	.byte	$00
	.byte	$00
	.byte	$00
	.byte	$00
	.byte	$00
	.byte	$00
	.byte	$00
	.byte	$00
	.byte	$00
	.byte	$00
	.byte	$00
	.byte	$00
	.byte	$00
	.byte	$00
	.byte	$00
	.byte	$00
_deltaruneLogo:
	.byte	$01
	.byte	$00
	.byte	$01
	.byte	$C2
	.byte	$FF
	.byte	$01
	.byte	$12
	.byte	$00
	.byte	$01
	.byte	$74
	.byte	$48
	.byte	$00
	.byte	$41
	.byte	$00
	.byte	$50
	.byte	$00
	.byte	$50
	.byte	$00
	.byte	$59
	.byte	$00
	.byte	$01
	.byte	$2D
	.byte	$81
	.byte	$82
	.byte	$00
	.byte	$01
	.byte	$02
	.byte	$83
	.byte	$84
	.byte	$00
	.byte	$85
	.byte	$86
	.byte	$00
	.byte	$01
	.byte	$13
	.byte	$87
	.byte	$88
	.byte	$89
	.byte	$8A
	.byte	$8B
	.byte	$88
	.byte	$88
	.byte	$8C
	.byte	$5F
	.byte	$8E
	.byte	$8F
	.byte	$90
	.byte	$91
	.byte	$92
	.byte	$88
	.byte	$01
	.byte	$02
	.byte	$00
	.byte	$88
	.byte	$88
	.byte	$A1
	.byte	$A2
	.byte	$A3
	.byte	$8B
	.byte	$A3
	.byte	$8B
	.byte	$88
	.byte	$88
	.byte	$8E
	.byte	$88
	.byte	$88
	.byte	$A4
	.byte	$93
	.byte	$5F
	.byte	$5F
	.byte	$8A
	.byte	$94
	.byte	$5F
	.byte	$5F
	.byte	$8C
	.byte	$5F
	.byte	$8C
	.byte	$5F
	.byte	$5F
	.byte	$95
	.byte	$96
	.byte	$97
	.byte	$98
	.byte	$5F
	.byte	$00
	.byte	$5F
	.byte	$A5
	.byte	$A6
	.byte	$A7
	.byte	$8A
	.byte	$94
	.byte	$8A
	.byte	$94
	.byte	$5F
	.byte	$5F
	.byte	$8C
	.byte	$5F
	.byte	$5F
	.byte	$A8
	.byte	$93
	.byte	$5F
	.byte	$5F
	.byte	$8A
	.byte	$94
	.byte	$99
	.byte	$9A
	.byte	$8C
	.byte	$5F
	.byte	$9B
	.byte	$9C
	.byte	$9D
	.byte	$9E
	.byte	$96
	.byte	$9F
	.byte	$A0
	.byte	$5F
	.byte	$00
	.byte	$5F
	.byte	$A9
	.byte	$AA
	.byte	$A7
	.byte	$AB
	.byte	$AC
	.byte	$8A
	.byte	$94
	.byte	$AD
	.byte	$AE
	.byte	$8C
	.byte	$5F
	.byte	$9A
	.byte	$AF
	.byte	$93
	.byte	$5F
	.byte	$5F
	.byte	$8A
	.byte	$94
	.byte	$B0
	.byte	$B1
	.byte	$8C
	.byte	$5F
	.byte	$00
	.byte	$B2
	.byte	$B3
	.byte	$00
	.byte	$96
	.byte	$B4
	.byte	$B5
	.byte	$5F
	.byte	$00
	.byte	$5F
	.byte	$00
	.byte	$00
	.byte	$A7
	.byte	$5F
	.byte	$5F
	.byte	$8A
	.byte	$94
	.byte	$BF
	.byte	$C0
	.byte	$8C
	.byte	$5F
	.byte	$B1
	.byte	$C1
	.byte	$B6
	.byte	$B7
	.byte	$B7
	.byte	$B8
	.byte	$B9
	.byte	$B7
	.byte	$B7
	.byte	$BA
	.byte	$B7
	.byte	$00
	.byte	$BB
	.byte	$BC
	.byte	$00
	.byte	$BD
	.byte	$BE
	.byte	$BB
	.byte	$B7
	.byte	$00
	.byte	$B7
	.byte	$00
	.byte	$00
	.byte	$C2
	.byte	$B7
	.byte	$B7
	.byte	$B8
	.byte	$B9
	.byte	$C3
	.byte	$C4
	.byte	$BA
	.byte	$B7
	.byte	$B7
	.byte	$C5
	.byte	$00
	.byte	$01
	.byte	$41
	.byte	$54
	.byte	$00
	.byte	$4F
	.byte	$00
	.byte	$4D
	.byte	$00
	.byte	$4F
	.byte	$00
	.byte	$52
	.byte	$00
	.byte	$52
	.byte	$00
	.byte	$4F
	.byte	$00
	.byte	$57
	.byte	$00
	.byte	$FF
	.byte	$01
	.byte	$02
	.byte	$44
	.byte	$FF
	.byte	$41
	.byte	$FF
	.byte	$59
	.byte	$00
	.byte	$01
	.byte	$FE
	.byte	$00
	.byte	$01
	.byte	$1F
	.byte	$42
	.byte	$59
	.byte	$00
	.byte	$46
	.byte	$50
	.byte	$48
	.byte	$00
	.byte	$01
	.byte	$3F
	.byte	$00
	.byte	$01
	.byte	$00
_mensaje1:
	.byte	$46,$6F,$72,$20,$6D,$69,$6C,$6C,$65,$6E,$69,$61,$2C,$20,$4C,$49
	.byte	$47,$48,$54,$20,$61,$6E,$64,$20,$44,$41,$52,$4B,$0A,$0A,$68,$61
	.byte	$76,$65,$20,$6C,$69,$76,$65,$64,$20,$69,$6E,$20,$62,$61,$6C,$61
	.byte	$6E,$63,$65,$2C,$00
_mensaje2:
	.byte	$42,$72,$69,$6E,$67,$69,$6E,$67,$20,$70,$65,$61,$63,$65,$20,$74
	.byte	$6F,$20,$74,$68,$65,$20,$57,$4F,$52,$4C,$44,$2E,$00
_mensaje3:
	.byte	$42,$75,$74,$20,$69,$66,$20,$74,$68,$69,$73,$20,$68,$61,$72,$6D
	.byte	$6F,$6E,$79,$0A,$0A,$77,$65,$72,$65,$20,$74,$6F,$20,$73,$68,$61
	.byte	$74,$74,$65,$72,$2E,$2E,$2E,$00
_mensaje4:
	.byte	$41,$20,$74,$65,$72,$72,$69,$62,$6C,$65,$20,$63,$61,$6C,$61,$6D
	.byte	$69,$74,$79,$20,$77,$6F,$75,$6C,$64,$20,$6F,$63,$63,$75,$72,$2E
	.byte	$00
_mensaje5:
	.byte	$54,$68,$65,$20,$73,$6B,$79,$20,$77,$69,$6C,$6C,$20,$72,$75,$6E
	.byte	$0A,$0A,$62,$6C,$61,$63,$6B,$20,$77,$69,$74,$68,$20,$74,$65,$72
	.byte	$72,$6F,$72,$00
_mensaje6:
	.byte	$41,$6E,$64,$20,$74,$68,$65,$20,$6C,$61,$6E,$64,$20,$77,$69,$6C
	.byte	$6C,$0A,$0A,$63,$72,$61,$63,$6B,$20,$77,$69,$74,$68,$20,$66,$65
	.byte	$61,$72,$2E,$00
_mensaje7:
	.byte	$54,$68,$65,$6E,$2C,$20,$68,$65,$72,$20,$68,$65,$61,$72,$74,$20
	.byte	$70,$6F,$75,$6E,$64,$69,$6E,$67,$2E,$2E,$2E,$00
_mensaje8:
	.byte	$54,$68,$65,$20,$45,$41,$52,$54,$48,$20,$77,$69,$6C,$6C,$20,$64
	.byte	$72,$61,$77,$0A,$0A,$68,$65,$72,$20,$66,$69,$6E,$61,$6C,$20,$62
	.byte	$72,$65,$61,$74,$68,$2E,$00
_mensaje9:
	.byte	$4F,$6E,$6C,$79,$20,$74,$68,$65,$6E,$2C,$20,$73,$68,$69,$6E,$69
	.byte	$6E,$67,$20,$77,$69,$74,$68,$20,$68,$6F,$70,$65,$2E,$2E,$2E,$00
_mensaje10:
	.byte	$54,$68,$72,$65,$65,$20,$48,$45,$52,$4F,$45,$53,$20,$61,$70,$70
	.byte	$65,$61,$72,$0A,$0A,$61,$74,$20,$57,$4F,$52,$4C,$44,$53,$27,$20
	.byte	$65,$64,$67,$65,$2E,$00
_mensaje11:
	.byte	$41,$20,$48,$55,$4D,$41,$4E,$2C,$00
_mensaje12:
	.byte	$41,$20,$4D,$4F,$4E,$53,$54,$45,$52,$2C,$00
_mensaje13:
	.byte	$41,$6E,$64,$20,$61,$20,$50,$52,$49,$4E,$43,$45,$0A,$0A,$46,$52
	.byte	$4F,$4D,$20,$54,$48,$45,$20,$44,$41,$52,$4B,$00
_mensaje14:
	.byte	$4F,$6E,$6C,$79,$20,$74,$68,$65,$79,$20,$63,$61,$6E,$20,$73,$65
	.byte	$61,$6C,$20,$74,$68,$65,$20,$66,$6F,$75,$6E,$74,$61,$69,$6E,$73
	.byte	$00
_mensaje15:
	.byte	$41,$6E,$64,$20,$62,$61,$6E,$69,$73,$68,$20,$74,$68,$65,$20,$41
	.byte	$4E,$47,$45,$4C,$27,$53,$20,$48,$45,$41,$56,$45,$4E,$2E,$00
_mensaje16:
	.byte	$4F,$6E,$6C,$79,$20,$74,$68,$65,$6E,$20,$77,$69,$6C,$6C,$20,$62
	.byte	$61,$6C,$61,$6E,$63,$65,$0A,$0A,$62,$65,$20,$72,$65,$73,$74,$6F
	.byte	$72,$65,$64,$2C,$00
_mensaje17:
	.byte	$41,$6E,$64,$20,$3E,$74,$68,$65,$20,$57,$4F,$52,$4C,$44,$20,$3E
	.byte	$73,$61,$76,$65,$64,$0A,$0A,$3E,$66,$72,$6F,$6D,$20,$64,$65,$73
	.byte	$74,$72,$3E,$75,$63,$74,$69,$6F,$6E,$2E,$00
_castle_triggers:
	.word	$0001
	.word	$005F
	.word	$00AA
	.word	$011D
	.word	$0000
_castle_messages_are_double:
	.byte	$00
	.byte	$01
	.byte	$01
	.byte	$00
_castle_messages_coordinates:
	.word	$2680
	.word	$2680
	.word	$2680
	.word	$2685
_castle_last_message:
	.byte	$44,$45,$4C,$54,$41,$20,$52,$55,$4E,$45,$00
_end_castle_triggers:
	.byte	$01
	.byte	$3C
	.byte	$00
_end_castle_messages_coordinates:
	.word	$2480
	.word	$2486
	.word	$2481
_end_castle_message_fragment:
	.byte	$7A,$6F,$6E,$2E,$2E,$2E,$00
_end_castle_message_1:
	.byte	$53,$74,$61,$6E,$64,$73,$20,$74,$61,$6C,$6C,$20,$61,$74,$20,$74
	.byte	$68,$65,$0A,$0A,$63,$65,$6E,$74,$65,$72,$20,$6F,$66,$20,$74,$68
	.byte	$65,$20,$6B,$69,$6E,$67,$64,$6F,$6D,$2E,$00
_end_castle_message_2:
	.byte	$41,$6E,$64,$20,$77,$69,$74,$68,$20,$69,$74,$2C,$20,$74,$68,$65
	.byte	$20,$62,$61,$6C,$61,$6E,$63,$65,$20,$6F,$66,$0A,$0A,$4C,$49,$47
	.byte	$48,$54,$20,$61,$6E,$64,$20,$44,$41,$52,$4B,$20,$62,$65,$67,$69
	.byte	$6E,$73,$20,$74,$6F,$20,$73,$68,$69,$66,$74,$2E,$2E,$00
S001A:
	.byte	$42,$75,$74,$20,$72,$65,$63,$65,$6E,$74,$6C,$79,$2C,$20,$61,$6E
	.byte	$6F,$74,$68,$65,$72,$20,$66,$6F,$75,$6E,$74,$61,$69,$6E,$0A,$0A
	.byte	$68,$61,$73,$20,$61,$70,$70,$65,$61,$72,$65,$64,$20,$6F,$6E,$20
	.byte	$74,$68,$65,$20,$68,$6F,$72,$69,$7A,$6F,$6E,$2E,$2E,$2E,$00
S0013:
	.byte	$4F,$6E,$63,$65,$20,$75,$70,$6F,$6E,$20,$61,$20,$74,$69,$6D,$65
	.byte	$2C,$20,$61,$20,$4C,$45,$47,$45,$4E,$44,$0A,$0A,$77,$61,$73,$20
	.byte	$77,$68,$69,$73,$70,$65,$72,$65,$64,$20,$61,$6D,$6F,$6E,$67,$20
	.byte	$73,$68,$61,$64,$6F,$77,$73,$2E,$00
S0014:
	.byte	$49,$49,$74,$74,$20,$20,$77,$77,$61,$61,$73,$73,$0A,$0A,$61,$61
	.byte	$20,$20,$4C,$4C,$45,$45,$47,$47,$45,$45,$4E,$4E,$44,$44,$0A,$0A
	.byte	$6F,$6F,$66,$66,$20,$20,$48,$44,$4F,$52,$50,$45,$45,$41,$2E,$4D
	.byte	$20,$53,$20,$2E,$00
S0015:
	.byte	$49,$49,$74,$74,$20,$20,$77,$77,$61,$61,$73,$73,$0A,$0A,$61,$61
	.byte	$20,$20,$4C,$4C,$45,$45,$47,$47,$45,$45,$4E,$4E,$44,$44,$0A,$0A
	.byte	$6F,$6F,$66,$66,$20,$20,$4C,$44,$49,$41,$47,$52,$48,$4B,$54,$2E
	.byte	$2E,$20,$00
S0019:
	.byte	$54,$68,$65,$20,$67,$65,$79,$73,$65,$72,$20,$74,$68,$61,$74,$0A
	.byte	$0A,$67,$69,$76,$65,$73,$20,$74,$68,$69,$73,$20,$6C,$61,$6E,$64
	.byte	$20,$66,$6F,$72,$6D,$2D,$00
S0018:
	.byte	$54,$6F,$64,$61,$79,$2C,$20,$74,$68,$65,$20,$46,$4F,$55,$4E,$54
	.byte	$41,$49,$4E,$20,$4F,$46,$20,$44,$41,$52,$4B,$4E,$45,$53,$53,$2D
	.byte	$00
S0016:
	.byte	$54,$68,$69,$73,$20,$69,$73,$20,$74,$68,$65,$20,$6C,$65,$67,$65
	.byte	$6E,$64,$20,$6F,$66,$00

.segment	"BSS"

_bankLevel:
	.res	1,$00
_bankBuffer:
	.res	10,$00
.segment	"ZEROPAGE"
_i:
	.res	1,$00
_j:
	.res	1,$00
_k:
	.res	1,$00
_l:
	.res	1,$00
_fi:
	.res	1,$00
_fj:
	.res	1,$00
_fk:
	.res	1,$00
_scx:
	.res	1,$00
_pad:
	.res	1,$00
_castle_scanline:
	.res	1,$00
_castle_scene_complete:
	.res	1,$00
_i16:
	.res	2,$00
_fi16:
	.res	2,$00
_fj16:
	.res	2,$00

; ---------------------------------------------------------------
; void __near__ custom_fade_in (unsigned char palNo, unsigned char time)
; ---------------------------------------------------------------

.segment	"CODE"

.proc	_custom_fade_in: near

	.dbg	func, "custom_fade_in", "00", static, "_custom_fade_in"
	.dbg	sym, "palNo", "00", auto, 1
	.dbg	sym, "time", "00", auto, 0

.segment	"CODE"

;
; void custom_fade_in(u8 palNo, u8 time){
;
	.dbg	line, "theLegend.c", 91
	jsr     pusha
;
; for (fi = 1; fi <= 3; ++fi){
;
	.dbg	line, "theLegend.c", 92
	lda     #$01
	sta     _fi
L0010:	lda     _fi
	cmp     #$04
	bcs     L0003
;
; for (fj = 0; fj < fi; ++fj){
;
	.dbg	line, "theLegend.c", 93
	lda     #$00
	sta     _fj
L0011:	lda     _fj
	cmp     _fi
	bcs     L0007
;
; fk = palNo*4+3-fj;
;
	.dbg	line, "theLegend.c", 94
	ldy     #$01
	lda     (sp),y
	asl     a
	asl     a
	clc
	adc     #$03
	sec
	sbc     _fj
	sta     _fk
;
; if(palette[fk] == 0x0f){
;
	.dbg	line, "theLegend.c", 95
	ldy     _fk
	lda     _palette,y
	cmp     #$0F
	bne     L000B
;
; palette[fk] = 0x07;
;
	.dbg	line, "theLegend.c", 96
	ldy     _fk
	lda     #$07
	sta     _palette,y
;
; }else{
;
	.dbg	line, "theLegend.c", 97
	jmp     L0012
;
; palette[fk] += 0x10;
;
	.dbg	line, "theLegend.c", 98
L000B:	lda     #<(_palette)
	ldx     #>(_palette)
	clc
	adc     _fk
	bcc     L000F
	inx
L000F:	sta     ptr1
	stx     ptr1+1
	ldy     #$00
	lda     (ptr1),y
	clc
	adc     #$10
	sta     (ptr1),y
;
; for (fj = 0; fj < fi; ++fj){
;
	.dbg	line, "theLegend.c", 93
L0012:	inc     _fj
	jmp     L0011
;
; delay(time);
;
	.dbg	line, "theLegend.c", 101
L0007:	ldy     #$00
	lda     (sp),y
	jsr     _delay
;
; pal_bg(palette);
;
	.dbg	line, "theLegend.c", 102
	lda     #<(_palette)
	ldx     #>(_palette)
	jsr     _pal_bg
;
; for (fi = 1; fi <= 3; ++fi){
;
	.dbg	line, "theLegend.c", 92
	inc     _fi
	jmp     L0010
;
; }
;
	.dbg	line, "theLegend.c", 104
L0003:	jmp     incsp2

	.dbg	line
.endproc

; ---------------------------------------------------------------
; void __near__ load_nametable_a_during_vblank (const unsigned char *table, unsigned int length)
; ---------------------------------------------------------------

.segment	"CODE"

.proc	_load_nametable_a_during_vblank: near

	.dbg	func, "load_nametable_a_during_vblank", "00", static, "_load_nametable_a_during_vblank"
	.dbg	sym, "table", "00", auto, 2
	.dbg	sym, "length", "00", auto, 0

.segment	"CODE"

;
; void load_nametable_a_during_vblank(const unsigned char* table, u16 length){
;
	.dbg	line, "theLegend.c", 105
	jsr     pushax
;
; fi16 = 0;
;
	.dbg	line, "theLegend.c", 106
	lda     #$00
	sta     _fi16
	sta     _fi16+1
;
; while(fi16 < length){ //NT_A+FULL 1024 B without changing palette
;
	.dbg	line, "theLegend.c", 107
	jmp     L0004
;
; set_vram_update(NULL);
;
	.dbg	line, "theLegend.c", 108
L0002:	ldx     #$00
	txa
	jsr     _set_vram_update
;
; nameTableLoader[0] = MSB(fi16 + NAMETABLE_A) | NT_UPD_HORZ;
;
	.dbg	line, "theLegend.c", 109
	lda     _fi16+1
	clc
	adc     #$20
	ora     #$40
	sta     _nameTableLoader
;
; nameTableLoader[1] = LSB(fi16 + NAMETABLE_A);
;
	.dbg	line, "theLegend.c", 110
	lda     _fi16
	sta     _nameTableLoader+1
	lda     _fi16+1
	clc
	adc     #$20
;
; memcpy(&nameTableLoader[3], &table[fi16], 64);
;
	.dbg	line, "theLegend.c", 111
	lda     #<(_nameTableLoader+3)
	ldx     #>(_nameTableLoader+3)
	jsr     pushax
	ldy     #$05
	lda     (sp),y
	tax
	dey
	lda     (sp),y
	clc
	adc     _fi16
	pha
	txa
	adc     _fi16+1
	tax
	pla
	jsr     pushax
	ldx     #$00
	lda     #$40
	jsr     _memcpy
;
; fi16 += 64;
;
	.dbg	line, "theLegend.c", 112
	lda     #$40
	clc
	adc     _fi16
	sta     _fi16
	bcc     L0005
	inc     _fi16+1
;
; set_vram_update(nameTableLoader);
;
	.dbg	line, "theLegend.c", 113
L0005:	lda     #<(_nameTableLoader)
	ldx     #>(_nameTableLoader)
	jsr     _set_vram_update
;
; ppu_wait_nmi();
;
	.dbg	line, "theLegend.c", 114
	jsr     _ppu_wait_nmi
;
; while(fi16 < length){ //NT_A+FULL 1024 B without changing palette
;
	.dbg	line, "theLegend.c", 107
L0004:	lda     _fi16
	ldy     #$00
	cmp     (sp),y
	lda     _fi16+1
	iny
	sbc     (sp),y
	bcc     L0002
;
; set_vram_update(NULL);
;
	.dbg	line, "theLegend.c", 116
	ldx     #$00
	txa
	jsr     _set_vram_update
;
; }
;
	.dbg	line, "theLegend.c", 117
	jmp     incsp4

	.dbg	line
.endproc

; ---------------------------------------------------------------
; void __near__ fade_in (unsigned char time)
; ---------------------------------------------------------------

.segment	"CODE"

.proc	_fade_in: near

	.dbg	func, "fade_in", "00", static, "_fade_in"
	.dbg	sym, "time", "00", auto, 0

.segment	"CODE"

;
; void fade_in(u8 time){ // From black to normal
;
	.dbg	line, "theLegend.c", 118
	jsr     pusha
;
; for (fi = 0; fi<4; ++fi){
;
	.dbg	line, "theLegend.c", 119
	lda     #$00
	sta     _fi
L0007:	lda     _fi
	cmp     #$04
	bcs     L0003
;
; delay(time);
;
	.dbg	line, "theLegend.c", 120
	ldy     #$00
	lda     (sp),y
	jsr     _delay
;
; pal_fade_to(fi, fi+1);
;
	.dbg	line, "theLegend.c", 121
	lda     _fi
	jsr     pusha
	lda     _fi
	clc
	adc     #$01
	jsr     _pal_fade_to
;
; for (fi = 0; fi<4; ++fi){
;
	.dbg	line, "theLegend.c", 119
	inc     _fi
	jmp     L0007
;
; }
;
	.dbg	line, "theLegend.c", 123
L0003:	jmp     incsp1

	.dbg	line
.endproc

; ---------------------------------------------------------------
; void __near__ fade_out (unsigned char time)
; ---------------------------------------------------------------

.segment	"CODE"

.proc	_fade_out: near

	.dbg	func, "fade_out", "00", static, "_fade_out"
	.dbg	sym, "time", "00", auto, 0

.segment	"CODE"

;
; void fade_out(u8 time){ //From normal to black
;
	.dbg	line, "theLegend.c", 124
	jsr     pusha
;
; for (fi = 4; fi > 0; --fi){
;
	.dbg	line, "theLegend.c", 125
	lda     #$04
	sta     _fi
L0007:	lda     _fi
	beq     L0003
;
; delay(time);
;
	.dbg	line, "theLegend.c", 126
	ldy     #$00
	lda     (sp),y
	jsr     _delay
;
; pal_fade_to(fi, fi-1);
;
	.dbg	line, "theLegend.c", 127
	lda     _fi
	jsr     pusha
	lda     _fi
	sec
	sbc     #$01
	jsr     _pal_fade_to
;
; for (fi = 4; fi > 0; --fi){
;
	.dbg	line, "theLegend.c", 125
	dec     _fi
	jmp     L0007
;
; }
;
	.dbg	line, "theLegend.c", 129
L0003:	jmp     incsp1

	.dbg	line
.endproc

; ---------------------------------------------------------------
; void __near__ fade_out_white (unsigned char time)
; ---------------------------------------------------------------

.segment	"CODE"

.proc	_fade_out_white: near

	.dbg	func, "fade_out_white", "00", static, "_fade_out_white"
	.dbg	sym, "time", "00", auto, 0

.segment	"CODE"

;
; void fade_out_white(u8 time){ //From normal to white
;
	.dbg	line, "theLegend.c", 130
	jsr     pusha
;
; for (fi = 4; fi < 8; ++fi){
;
	.dbg	line, "theLegend.c", 131
	lda     #$04
	sta     _fi
L0007:	lda     _fi
	cmp     #$08
	bcs     L0003
;
; delay(time);
;
	.dbg	line, "theLegend.c", 132
	ldy     #$00
	lda     (sp),y
	jsr     _delay
;
; pal_fade_to(fi, fi+1);
;
	.dbg	line, "theLegend.c", 133
	lda     _fi
	jsr     pusha
	lda     _fi
	clc
	adc     #$01
	jsr     _pal_fade_to
;
; for (fi = 4; fi < 8; ++fi){
;
	.dbg	line, "theLegend.c", 131
	inc     _fi
	jmp     L0007
;
; }
;
	.dbg	line, "theLegend.c", 135
L0003:	jmp     incsp1

	.dbg	line
.endproc

; ---------------------------------------------------------------
; void __near__ fade_in_white (unsigned char time)
; ---------------------------------------------------------------

.segment	"CODE"

.proc	_fade_in_white: near

	.dbg	func, "fade_in_white", "00", static, "_fade_in_white"
	.dbg	sym, "time", "00", auto, 0

.segment	"CODE"

;
; void fade_in_white(u8 time){ //From white to normal
;
	.dbg	line, "theLegend.c", 136
	jsr     pusha
;
; for (fi = 8; fi > 4; --fi){
;
	.dbg	line, "theLegend.c", 137
	lda     #$08
	sta     _fi
L0007:	lda     _fi
	cmp     #$05
	bcc     L0003
;
; delay(time);
;
	.dbg	line, "theLegend.c", 138
	ldy     #$00
	lda     (sp),y
	jsr     _delay
;
; pal_fade_to(fi, fi-1);
;
	.dbg	line, "theLegend.c", 139
	lda     _fi
	jsr     pusha
	lda     _fi
	sec
	sbc     #$01
	jsr     _pal_fade_to
;
; for (fi = 8; fi > 4; --fi){
;
	.dbg	line, "theLegend.c", 137
	dec     _fi
	jmp     L0007
;
; }
;
	.dbg	line, "theLegend.c", 141
L0003:	jmp     incsp1

	.dbg	line
.endproc

; ---------------------------------------------------------------
; void __near__ send_line_after_vscroll_a (void)
; ---------------------------------------------------------------

.segment	"CODE"

.proc	_send_line_after_vscroll_a: near

	.dbg	func, "send_line_after_vscroll_a", "00", static, "_send_line_after_vscroll_a"

.segment	"CODE"

;
; line_vram_sender[0] = MSB(NAMETABLE_A+new_pos)| NT_UPD_HORZ;
;
	.dbg	line, "theLegend.c", 143
	lda     _new_pos+1
	clc
	adc     #$20
	ora     #$40
	sta     _line_vram_sender
;
; line_vram_sender[1] = LSB(NAMETABLE_A+new_pos);
;
	.dbg	line, "theLegend.c", 144
	lda     _new_pos
	sta     _line_vram_sender+1
	lda     _new_pos+1
	clc
	adc     #$20
;
; memcpy(&line_vram_sender[3], &castle[1024+new_pos], 32);
;
	.dbg	line, "theLegend.c", 145
	lda     #<(_line_vram_sender+3)
	ldx     #>(_line_vram_sender+3)
	jsr     pushax
	lda     _new_pos
	pha
	lda     _new_pos+1
	clc
	adc     #$04
	tax
	pla
	clc
	adc     #<(_castle)
	tay
	txa
	adc     #>(_castle)
	tax
	tya
	jsr     pushax
	ldx     #$00
	lda     #$20
	jsr     _memcpy
;
; set_vram_update(line_vram_sender);
;
	.dbg	line, "theLegend.c", 146
	lda     #<(_line_vram_sender)
	ldx     #>(_line_vram_sender)
	jsr     _set_vram_update
;
; new_pos = new_pos + 32;
;
	.dbg	line, "theLegend.c", 147
	lda     _new_pos
	ldx     _new_pos+1
	clc
	adc     #$20
	bcc     L0002
	inx
L0002:	sta     _new_pos
	stx     _new_pos+1
;
; }
;
	.dbg	line, "theLegend.c", 148
	rts

	.dbg	line
.endproc

; ---------------------------------------------------------------
; void __near__ map_to (unsigned char image)
; ---------------------------------------------------------------

.segment	"CODE"

.proc	_map_to: near

	.dbg	func, "map_to", "00", static, "_map_to"
	.dbg	sym, "image", "00", auto, 0

.segment	"CODE"

;
; void map_to(u8 image){ // Changes the tileset of BG 0 and updates the irq
;
	.dbg	line, "theLegend.c", 149
	jsr     pusha
;
; disable_irq();
;
	.dbg	line, "theLegend.c", 150
	jsr     _disable_irq
;
; set_chr_mode_0(image);
;
	.dbg	line, "theLegend.c", 151
	ldy     #$00
	lda     (sp),y
	jsr     _set_chr_mode_0
;
; set_chr_mode_1(image+1);
;
	.dbg	line, "theLegend.c", 152
	ldy     #$00
	lda     (sp),y
	clc
	adc     #$01
	jsr     _set_chr_mode_1
;
; set_chr_mode_2(image+2);
;
	.dbg	line, "theLegend.c", 153
	ldy     #$00
	lda     (sp),y
	clc
	adc     #$02
	jsr     _set_chr_mode_2
;
; set_chr_mode_3(image+3);
;
	.dbg	line, "theLegend.c", 154
	ldy     #$00
	lda     (sp),y
	clc
	adc     #$03
	jsr     _set_chr_mode_3
;
; irq_buffer[1] = image;
;
	.dbg	line, "theLegend.c", 155
	ldy     #$00
	lda     (sp),y
	sta     _irq_buffer+1
;
; irq_buffer[3] = image+1;
;
	.dbg	line, "theLegend.c", 156
	lda     (sp),y
	clc
	adc     #$01
	sta     _irq_buffer+3
;
; set_irq_ptr(irq_buffer);
;
	.dbg	line, "theLegend.c", 157
	lda     #<(_irq_buffer)
	ldx     #>(_irq_buffer)
	jsr     _set_irq_ptr
;
; }
;
	.dbg	line, "theLegend.c", 158
	jmp     incsp1

	.dbg	line
.endproc

; ---------------------------------------------------------------
; void __near__ fix_text_color (unsigned int nametable)
; ---------------------------------------------------------------

.segment	"CODE"

.proc	_fix_text_color: near

	.dbg	func, "fix_text_color", "00", static, "_fix_text_color"
	.dbg	sym, "nametable", "00", auto, 0

.segment	"CODE"

;
; void fix_text_color(u16 nametable){ //Fixes the nametable attr to show the text in white
;
	.dbg	line, "theLegend.c", 159
	jsr     pushax
;
; fi = 0;
;
	.dbg	line, "theLegend.c", 160
	lda     #$00
	sta     _fi
;
; vram_adr(nametable+0x3E8);
;
	.dbg	line, "theLegend.c", 161
	ldy     #$01
	lda     (sp),y
	tax
	dey
	lda     (sp),y
	clc
	adc     #$E8
	pha
	txa
	adc     #$03
	tax
	pla
	jsr     _vram_adr
;
; for (fi = 0; fi < 16; ++fi){
;
	.dbg	line, "theLegend.c", 162
	lda     #$00
	sta     _fi
L0006:	lda     _fi
	cmp     #$10
	bcs     L0003
;
; vram_put(0xFF);
;
	.dbg	line, "theLegend.c", 163
	lda     #$FF
	jsr     _vram_put
;
; for (fi = 0; fi < 16; ++fi){
;
	.dbg	line, "theLegend.c", 162
	inc     _fi
	jmp     L0006
;
; }
;
	.dbg	line, "theLegend.c", 165
L0003:	jmp     incsp2

	.dbg	line
.endproc

; ---------------------------------------------------------------
; void __near__ print (const char *message, unsigned int addr)
; ---------------------------------------------------------------

.segment	"CODE"

.proc	_print: near

	.dbg	func, "print", "00", static, "_print"
	.dbg	sym, "message", "00", auto, 2
	.dbg	sym, "addr", "00", auto, 0

.segment	"CODE"

;
; void print(const char* message, u16 addr){
;
	.dbg	line, "theLegend.c", 167
	jsr     pushax
;
; fi = 0; //fi is the index for the message
;
	.dbg	line, "theLegend.c", 168
	lda     #$00
	sta     _fi
;
; fj = 0; //fj is the line count
;
	.dbg	line, "theLegend.c", 169
	sta     _fj
;
; fi16 = addr;
;
	.dbg	line, "theLegend.c", 170
	ldy     #$01
	lda     (sp),y
	sta     _fi16+1
	dey
	lda     (sp),y
	sta     _fi16
;
; --fi16;
;
	.dbg	line, "theLegend.c", 171
	ldx     _fi16
	bne     L0002
	dec     _fi16+1
L0002:	dex
	stx     _fi16
;
; std_print_sender[0] = MSB(fi16) | NT_UPD_HORZ;
;
	.dbg	line, "theLegend.c", 172
	lda     _fi16+1
	ora     #$40
	sta     _std_print_sender
;
; std_print_sender[1] = LSB(fi16);
;
	.dbg	line, "theLegend.c", 173
	lda     _fi16
	sta     _std_print_sender+1
;
; while(message[fi]){
;
	.dbg	line, "theLegend.c", 174
	jmp     L0005
;
; ppu_wait_nmi();
;
	.dbg	line, "theLegend.c", 175
L0003:	jsr     _ppu_wait_nmi
;
; set_vram_update(NULL);
;
	.dbg	line, "theLegend.c", 176
	ldx     #$00
	txa
	jsr     _set_vram_update
;
; if(message[fi] == '\n'){
;
	.dbg	line, "theLegend.c", 177
	ldy     #$03
	lda     (sp),y
	tax
	dey
	lda     (sp),y
	ldy     _fi
	sta     ptr1
	stx     ptr1+1
	lda     (ptr1),y
	cmp     #$0A
	bne     L0006
;
; set_vram_update(NULL);
;
	.dbg	line, "theLegend.c", 178
	ldx     #$00
	txa
	jsr     _set_vram_update
;
; std_print_sender[1] = LSB(fi16) + 32 * ++fj;
;
	.dbg	line, "theLegend.c", 179
	ldx     #$00
	inc     _fj
	lda     _fj
	jsr     shlax4
	stx     tmp1
	asl     a
	rol     tmp1
	clc
	adc     _fi16
	sta     _std_print_sender+1
;
; if(fj >= 8){
;
	.dbg	line, "theLegend.c", 180
	lda     _fj
	cmp     #$08
	jcc     L001B
;
; fj = 0;
;
	.dbg	line, "theLegend.c", 181
	lda     #$00
	sta     _fj
;
; ++std_print_sender[0];
;
	.dbg	line, "theLegend.c", 182
	inc     _std_print_sender
;
; }else if (message[fi] == '>'){
;
	.dbg	line, "theLegend.c", 184
	jmp     L001B
L0006:	ldy     #$03
	lda     (sp),y
	tax
	dey
	lda     (sp),y
	ldy     _fi
	sta     ptr1
	stx     ptr1+1
	lda     (ptr1),y
	cmp     #$3E
	bne     L0009
;
; for (fk = 0; fk < 4; ++fk){
;
	.dbg	line, "theLegend.c", 185
	lda     #$00
	sta     _fk
L0019:	lda     _fk
	cmp     #$04
	bcs     L000B
;
; if(palette[fk] <= 0x0f){
;
	.dbg	line, "theLegend.c", 186
	ldy     _fk
	lda     _palette,y
	cmp     #$10
	bcs     L000E
;
; palette[fk] = 0x0f;
;
	.dbg	line, "theLegend.c", 187
	ldy     _fk
	lda     #$0F
	sta     _palette,y
;
; }else{
;
	.dbg	line, "theLegend.c", 188
	jmp     L001A
;
; palette[fk] -= 0x10;
;
	.dbg	line, "theLegend.c", 189
L000E:	lda     #<(_palette)
	ldx     #>(_palette)
	clc
	adc     _fk
	bcc     L0012
	inx
L0012:	sta     ptr1
	stx     ptr1+1
	ldy     #$00
	lda     (ptr1),y
	sec
	sbc     #$10
	sta     (ptr1),y
;
; for (fk = 0; fk < 4; ++fk){
;
	.dbg	line, "theLegend.c", 185
L001A:	inc     _fk
	jmp     L0019
;
; pal_bg(palette);
;
	.dbg	line, "theLegend.c", 192
L000B:	lda     #<(_palette)
	ldx     #>(_palette)
	jsr     _pal_bg
;
; }else{
;
	.dbg	line, "theLegend.c", 193
	jmp     L001B
;
; std_print_sender[3] = message[fi];
;
	.dbg	line, "theLegend.c", 194
L0009:	ldy     #$03
	lda     (sp),y
	tax
	dey
	lda     (sp),y
	ldy     _fi
	sta     ptr1
	stx     ptr1+1
	lda     (ptr1),y
	sta     _std_print_sender+3
;
; ++std_print_sender[1];
;
	.dbg	line, "theLegend.c", 195
	inc     _std_print_sender+1
;
; set_vram_update(std_print_sender);
;
	.dbg	line, "theLegend.c", 196
	lda     #<(_std_print_sender)
	ldx     #>(_std_print_sender)
	jsr     _set_vram_update
;
; delay(delay_time);
;
	.dbg	line, "theLegend.c", 197
	lda     _delay_time
	jsr     _delay
;
; ++fi;
;
	.dbg	line, "theLegend.c", 199
L001B:	inc     _fi
;
; while(message[fi]){
;
	.dbg	line, "theLegend.c", 174
L0005:	ldy     #$03
	lda     (sp),y
	tax
	dey
	lda     (sp),y
	ldy     _fi
	sta     ptr1
	stx     ptr1+1
	lda     (ptr1),y
	jne     L0003
;
; ppu_wait_nmi();
;
	.dbg	line, "theLegend.c", 201
	jsr     _ppu_wait_nmi
;
; set_vram_update(NULL);
;
	.dbg	line, "theLegend.c", 202
	ldx     #$00
	txa
	jsr     _set_vram_update
;
; }
;
	.dbg	line, "theLegend.c", 203
	jmp     incsp4

	.dbg	line
.endproc

; ---------------------------------------------------------------
; void __near__ print_a (const char *message, unsigned char x, unsigned char y)
; ---------------------------------------------------------------

.segment	"CODE"

.proc	_print_a: near

	.dbg	func, "print_a", "00", static, "_print_a"
	.dbg	sym, "message", "00", auto, 2
	.dbg	sym, "x", "00", auto, 1
	.dbg	sym, "y", "00", auto, 0

.segment	"CODE"

;
; void print_a(const char* message, u8 x, u8 y){
;
	.dbg	line, "theLegend.c", 204
	jsr     pusha
;
; print(message, NTADR_A(x,y));
;
	.dbg	line, "theLegend.c", 205
	ldy     #$05
	jsr     pushwysp
	ldy     #$02
	ldx     #$00
	lda     (sp),y
	jsr     aslax4
	stx     tmp1
	asl     a
	rol     tmp1
	sta     ptr1
	iny
	lda     (sp),y
	ora     ptr1
	pha
	lda     tmp1
	ora     #$20
	tax
	pla
	jsr     _print
;
; }
;
	.dbg	line, "theLegend.c", 206
	jmp     incsp4

	.dbg	line
.endproc

; ---------------------------------------------------------------
; void __near__ clear_4_lines (unsigned int addr)
; ---------------------------------------------------------------

.segment	"CODE"

.proc	_clear_4_lines: near

	.dbg	func, "clear_4_lines", "00", static, "_clear_4_lines"
	.dbg	sym, "addr", "00", auto, 0

.segment	"CODE"

;
; void clear_4_lines(u16 addr){
;
	.dbg	line, "theLegend.c", 207
	jsr     pushax
;
; set_vram_update(NULL);
;
	.dbg	line, "theLegend.c", 208
	ldx     #$00
	txa
	jsr     _set_vram_update
;
; fi16 = addr;
;
	.dbg	line, "theLegend.c", 209
	ldy     #$01
	lda     (sp),y
	sta     _fi16+1
	dey
	lda     (sp),y
	sta     _fi16
;
; clear[0] = MSB(fi16) | NT_UPD_HORZ;
;
	.dbg	line, "theLegend.c", 210
	lda     _fi16+1
	ora     #$40
	sta     _clear
;
; clear[1] = LSB(fi16);
;
	.dbg	line, "theLegend.c", 211
	lda     _fi16
	sta     _clear+1
;
; set_vram_update(clear);
;
	.dbg	line, "theLegend.c", 212
	lda     #<(_clear)
	ldx     #>(_clear)
	jsr     _set_vram_update
;
; ppu_wait_nmi();
;
	.dbg	line, "theLegend.c", 213
	jsr     _ppu_wait_nmi
;
; fi16 += 64;
;
	.dbg	line, "theLegend.c", 214
	lda     #$40
	clc
	adc     _fi16
	sta     _fi16
	bcc     L0002
	inc     _fi16+1
;
; clear[0] = MSB(fi16) | NT_UPD_HORZ;
;
	.dbg	line, "theLegend.c", 215
L0002:	lda     _fi16+1
	ora     #$40
	sta     _clear
;
; clear[1] = LSB(fi16);
;
	.dbg	line, "theLegend.c", 216
	lda     _fi16
	sta     _clear+1
;
; ppu_wait_nmi();
;
	.dbg	line, "theLegend.c", 217
	jsr     _ppu_wait_nmi
;
; set_vram_update(NULL);
;
	.dbg	line, "theLegend.c", 218
	ldx     #$00
	txa
	jsr     _set_vram_update
;
; }
;
	.dbg	line, "theLegend.c", 219
	jmp     incsp2

	.dbg	line
.endproc

; ---------------------------------------------------------------
; void __near__ clear_4_lines_a (unsigned char line)
; ---------------------------------------------------------------

.segment	"CODE"

.proc	_clear_4_lines_a: near

	.dbg	func, "clear_4_lines_a", "00", static, "_clear_4_lines_a"
	.dbg	sym, "line", "00", auto, 0

.segment	"CODE"

;
; void clear_4_lines_a(u8 line){
;
	.dbg	line, "theLegend.c", 220
	jsr     pusha
;
; clear_4_lines(NTADR_A(0, line));
;
	.dbg	line, "theLegend.c", 221
	ldx     #$00
	lda     (sp,x)
	jsr     aslax4
	stx     tmp1
	asl     a
	rol     tmp1
	pha
	lda     tmp1
	ora     #$20
	tax
	pla
	jsr     _clear_4_lines
;
; }
;
	.dbg	line, "theLegend.c", 222
	jmp     incsp1

	.dbg	line
.endproc

; ---------------------------------------------------------------
; void __near__ change_std_scanline (unsigned char line)
; ---------------------------------------------------------------

.segment	"CODE"

.proc	_change_std_scanline: near

	.dbg	func, "change_std_scanline", "00", static, "_change_std_scanline"
	.dbg	sym, "line", "00", auto, 0

.segment	"CODE"

;
; void change_std_scanline(u8 line){
;
	.dbg	line, "theLegend.c", 223
	jsr     pusha
;
; while(!is_irq_done()){}
;
	.dbg	line, "theLegend.c", 224
L0002:	jsr     _is_irq_done
	tax
	beq     L0002
;
; irq_buffer[4] = line;
;
	.dbg	line, "theLegend.c", 225
	ldy     #$00
	lda     (sp),y
	sta     _irq_buffer+4
;
; }
;
	.dbg	line, "theLegend.c", 226
	jmp     incsp1

	.dbg	line
.endproc

; ---------------------------------------------------------------
; void __near__ main (void)
; ---------------------------------------------------------------

.segment	"CODE"

.proc	_main: near

	.dbg	func, "main", "00", static, "_main"

.segment	"CODE"

;
; ppu_off(); // screen off
;
	.dbg	line, "theLegend.c", 228
	jsr     _ppu_off
;
; bank_spr(1); //WARNING: bg map must be 0 and spr bank must be 1 for IRQ to work in real HW
;
	.dbg	line, "theLegend.c", 229
	lda     #$01
	jsr     _bank_spr
;
; pal_bg(palette); // load the palette
;
	.dbg	line, "theLegend.c", 231
	lda     #<(_palette)
	ldx     #>(_palette)
	jsr     _pal_bg
;
; disable_irq();
;
	.dbg	line, "theLegend.c", 232
	jsr     _disable_irq
;
; famistudio_init_wrapper((u8)FAMISTUDIO_PLATFORM_NTSC, 0x8000);
;
	.dbg	line, "theLegend.c", 233
	lda     #$01
	jsr     pusha
	ldx     #$80
	lda     #$00
	jsr     _famistudio_init_wrapper
;
; map_to(CASTLE_A);
;
	.dbg	line, "theLegend.c", 237
L0002:	lda     #$20
	jsr     _map_to
;
; vram_adr(NAMETABLE_A);
;
	.dbg	line, "theLegend.c", 238
	ldx     #$20
	lda     #$00
	jsr     _vram_adr
;
; vram_write(castle, 1024);
;
	.dbg	line, "theLegend.c", 239
	lda     #<(_castle)
	ldx     #>(_castle)
	jsr     pushax
	ldx     #$04
	lda     #$00
	jsr     _vram_write
;
; vram_adr(NTADR_B(11,20));
;
	.dbg	line, "theLegend.c", 240
	ldx     #$26
	lda     #$8B
	jsr     _vram_adr
;
; fix_text_color(NAMETABLE_B);
;
	.dbg	line, "theLegend.c", 242
	ldx     #$24
	lda     #$00
	jsr     _fix_text_color
;
; scy = 0;
;
	.dbg	line, "theLegend.c", 243
	lda     #$00
	sta     _scy
	sta     _scy+1
;
; new_pos = 0;
;
	.dbg	line, "theLegend.c", 244
	sta     _new_pos
	sta     _new_pos+1
;
; castle_scanline = 1;
;
	.dbg	line, "theLegend.c", 245
	lda     #$01
	sta     _castle_scanline
;
; castle_scene_complete = 0;
;
	.dbg	line, "theLegend.c", 246
	lda     #$00
	sta     _castle_scene_complete
;
; irq_buffer_castle_2[8] = 146;
;
	.dbg	line, "theLegend.c", 247
	lda     #$92
	sta     _irq_buffer_castle_2+8
;
; irq_buffer_castle_2[17] = 1;
;
	.dbg	line, "theLegend.c", 248
	lda     #$01
	sta     _irq_buffer_castle_2+17
;
; i = 0xFF;
;
	.dbg	line, "theLegend.c", 249
	lda     #$FF
	sta     _i
;
; j = 0;
;
	.dbg	line, "theLegend.c", 250
	lda     #$00
	sta     _j
;
; set_irq_ptr(irq_buffer_castle_1);
;
	.dbg	line, "theLegend.c", 251
	lda     #<(_irq_buffer_castle_1)
	ldx     #>(_irq_buffer_castle_1)
	jsr     _set_irq_ptr
;
; pal_bright(0);
;
	.dbg	line, "theLegend.c", 252
	lda     #$00
	jsr     _pal_bright
;
; ppu_on_all();
;
	.dbg	line, "theLegend.c", 253
	jsr     _ppu_on_all
;
; famistudio_music_play_wrapper(0);
;
	.dbg	line, "theLegend.c", 254
	lda     #$00
	jsr     _famistudio_music_play_wrapper
;
; fade_in(4);
;
	.dbg	line, "theLegend.c", 255
	lda     #$04
	jsr     _fade_in
;
; while(!castle_scene_complete){
;
	.dbg	line, "theLegend.c", 257
	jmp     L0035
;
; ppu_wait_nmi();
;
	.dbg	line, "theLegend.c", 261
L0005:	jsr     _ppu_wait_nmi
;
; set_vram_update(NULL);
;
	.dbg	line, "theLegend.c", 262
	ldx     #$00
	txa
	jsr     _set_vram_update
;
; if(scy < 0x14A){
;
	.dbg	line, "theLegend.c", 263
	lda     _scy+1
	cmp     #$01
	bne     L0009
	lda     _scy
	cmp     #$4A
L0009:	jcs     L0008
;
; ++k;
;
	.dbg	line, "theLegend.c", 264
	inc     _k
;
; if (k==3){
;
	.dbg	line, "theLegend.c", 265
	lda     _k
	cmp     #$03
	jne     L009A
;
; k=0;
;
	.dbg	line, "theLegend.c", 266
	lda     #$00
	sta     _k
;
; scy = add_scroll_y(1, scy);
;
	.dbg	line, "theLegend.c", 267
	lda     #$01
	jsr     pusha
	lda     _scy
	ldx     _scy+1
	jsr     _add_scroll_y
	sta     _scy
	stx     _scy+1
;
; set_scroll_y(scy);
;
	.dbg	line, "theLegend.c", 268
	jsr     _set_scroll_y
;
; if (scy == 91){
;
	.dbg	line, "theLegend.c", 269
	lda     _scy+1
	bne     L000B
	lda     _scy
	cmp     #$5B
	bne     L000B
;
; while(!is_irq_done()){}
;
	.dbg	line, "theLegend.c", 270
L000D:	jsr     _is_irq_done
	tax
	beq     L000D
;
; set_irq_ptr(irq_buffer_castle_2);
;
	.dbg	line, "theLegend.c", 271
	lda     #<(_irq_buffer_castle_2)
	ldx     #>(_irq_buffer_castle_2)
	jsr     _set_irq_ptr
;
; }else if (scy>=91 && castle_scanline){
;
	.dbg	line, "theLegend.c", 272
	jmp     L0018
L000B:	lda     _scy
	cmp     #$5B
	lda     _scy+1
	sbc     #$00
	bcc     L0018
	lda     _castle_scanline
	beq     L0018
;
; while(!is_irq_done()){}
;
	.dbg	line, "theLegend.c", 273
L0015:	jsr     _is_irq_done
	tax
	beq     L0015
;
; --irq_buffer_castle_2[8];
;
	.dbg	line, "theLegend.c", 274
	dec     _irq_buffer_castle_2+8
;
; ++irq_buffer_castle_2[17];
;
	.dbg	line, "theLegend.c", 275
	inc     _irq_buffer_castle_2+17
;
; if (irq_buffer_castle_2[8] == 0){
;
	.dbg	line, "theLegend.c", 276
	lda     _irq_buffer_castle_2+8
	bne     L0018
;
; while(!is_irq_done()){}
;
	.dbg	line, "theLegend.c", 277
L0019:	jsr     _is_irq_done
	tax
	beq     L0019
;
; set_irq_ptr(irq_buffer_castle_3);
;
	.dbg	line, "theLegend.c", 278
	lda     #<(_irq_buffer_castle_3)
	ldx     #>(_irq_buffer_castle_3)
	jsr     _set_irq_ptr
;
; set_chr_mode_2(CASTLE_B+2);
;
	.dbg	line, "theLegend.c", 279
	lda     #$26
	jsr     _set_chr_mode_2
;
; set_chr_mode_3(CASTLE_B+3);
;
	.dbg	line, "theLegend.c", 280
	lda     #$27
	jsr     _set_chr_mode_3
;
; castle_scanline = 0;
;
	.dbg	line, "theLegend.c", 281
	lda     #$00
	sta     _castle_scanline
;
; if (scy<0x100 && scy%8==0){
;
	.dbg	line, "theLegend.c", 284
L0018:	ldx     _scy+1
	cpx     #$01
	jcs     L0035
	lda     _scy
	and     #$07
	jne     L0035
;
; send_line_after_vscroll_a();
;
	.dbg	line, "theLegend.c", 285
	jsr     _send_line_after_vscroll_a
;
; }else{
;
	.dbg	line, "theLegend.c", 287
	jmp     L0035
;
; if(castle_triggers[(u8)(i+1)] && scy>= castle_triggers[(u8)(i+1)]){
;
	.dbg	line, "theLegend.c", 288
L009A:	lda     _i
	clc
	adc     #$01
	ldx     #$00
	asl     a
	bcc     L0083
	inx
	clc
L0083:	adc     #<(_castle_triggers)
	sta     ptr1
	txa
	adc     #>(_castle_triggers)
	sta     ptr1+1
	ldy     #$00
	lda     (ptr1),y
	iny
	ora     (ptr1),y
	beq     L009B
	lda     _scy
	ldx     _scy+1
	jsr     pushax
	lda     _i
	clc
	adc     #$01
	ldx     #$00
	asl     a
	bcc     L0084
	inx
	clc
L0084:	adc     #<(_castle_triggers)
	sta     ptr1
	txa
	adc     #>(_castle_triggers)
	sta     ptr1+1
	ldy     #$01
	lda     (ptr1),y
	tax
	dey
	lda     (ptr1),y
	jsr     tosicmp
	bcc     L009B
;
; ++i;
;
	.dbg	line, "theLegend.c", 289
	inc     _i
;
; j=0;
;
	.dbg	line, "theLegend.c", 290
	lda     #$00
	sta     _j
;
; l=0;
;
	.dbg	line, "theLegend.c", 291
	sta     _l
;
; clear_4_lines(NTADR_B(0,20));
;
	.dbg	line, "theLegend.c", 292
	ldx     #$26
	lda     #$80
	jsr     _clear_4_lines
;
; clear_4_lines(NTADR_B(0,21));
;
	.dbg	line, "theLegend.c", 293
	ldx     #$26
	lda     #$A0
	jsr     _clear_4_lines
;
; i16 = castle_messages_coordinates[i];
;
	.dbg	line, "theLegend.c", 294
	ldx     #$00
	lda     _i
	asl     a
	bcc     L0085
	inx
	clc
L0085:	adc     #<(_castle_messages_coordinates)
	sta     ptr1
	txa
	adc     #>(_castle_messages_coordinates)
	sta     ptr1+1
	ldy     #$01
	lda     (ptr1),y
	sta     _i16+1
	dey
	lda     (ptr1),y
	sta     _i16
;
; if (i!=0xFF && castle_messages[i][j]&& k%2==0){
;
	.dbg	line, "theLegend.c", 296
L009B:	lda     _i
	cmp     #$FF
	jeq     L0035
	ldx     #$00
	lda     _i
	asl     a
	bcc     L0086
	inx
	clc
L0086:	adc     #<(_castle_messages)
	sta     ptr1
	txa
	adc     #>(_castle_messages)
	sta     ptr1+1
	ldy     #$01
	lda     (ptr1),y
	tax
	dey
	lda     (ptr1),y
	ldy     _j
	sta     ptr1
	stx     ptr1+1
	lda     (ptr1),y
	jeq     L0035
	lda     _k
	and     #$01
	jne     L0035
;
; if(castle_messages[i][j]=='\n'){
;
	.dbg	line, "theLegend.c", 297
	tax
	lda     _i
	asl     a
	bcc     L0087
	inx
	clc
L0087:	adc     #<(_castle_messages)
	sta     ptr1
	txa
	adc     #>(_castle_messages)
	sta     ptr1+1
	ldy     #$01
	lda     (ptr1),y
	tax
	dey
	lda     (ptr1),y
	ldy     _j
	sta     ptr1
	stx     ptr1+1
	lda     (ptr1),y
	cmp     #$0A
	bne     L002D
;
; ++l;
;
	.dbg	line, "theLegend.c", 298
	inc     _l
;
; i16 = castle_messages_coordinates[i];
;
	.dbg	line, "theLegend.c", 299
	ldx     #$00
	lda     _i
	asl     a
	bcc     L0088
	inx
	clc
L0088:	adc     #<(_castle_messages_coordinates)
	sta     ptr1
	txa
	adc     #>(_castle_messages_coordinates)
	sta     ptr1+1
	ldy     #$01
	lda     (ptr1),y
	sta     _i16+1
	dey
	lda     (ptr1),y
	sta     _i16
;
; i16+=32*l;
;
	.dbg	line, "theLegend.c", 300
	ldx     #$00
	lda     _l
	jsr     shlax4
	stx     tmp1
	asl     a
	rol     tmp1
	clc
	adc     _i16
	sta     _i16
	lda     tmp1
	adc     _i16+1
	sta     _i16+1
;
; ++j;
;
	.dbg	line, "theLegend.c", 301
	inc     _j
;
; }else{
;
	.dbg	line, "theLegend.c", 302
	jmp     L0035
;
; if(castle_messages_are_double[i]){
;
	.dbg	line, "theLegend.c", 303
L002D:	ldy     _i
	lda     _castle_messages_are_double,y
	jeq     L009F
;
; double_print_sender[0] = MSB(i16) | NT_UPD_HORZ;
;
	.dbg	line, "theLegend.c", 304
	lda     _i16+1
	ora     #$40
	sta     _double_print_sender
;
; double_print_sender[1] = LSB(i16);
;
	.dbg	line, "theLegend.c", 305
	lda     _i16
	sta     _double_print_sender+1
;
; double_print_sender[3] = castle_messages[i][j];
;
	.dbg	line, "theLegend.c", 306
	ldx     #$00
	lda     _i
	asl     a
	bcc     L0089
	inx
	clc
L0089:	adc     #<(_castle_messages)
	sta     ptr1
	txa
	adc     #>(_castle_messages)
	sta     ptr1+1
	ldy     #$01
	lda     (ptr1),y
	tax
	dey
	lda     (ptr1),y
	ldy     _j
	sta     ptr1
	stx     ptr1+1
	lda     (ptr1),y
	sta     _double_print_sender+3
;
; i16+=22;
;
	.dbg	line, "theLegend.c", 307
	lda     #$16
	clc
	adc     _i16
	sta     _i16
	bcc     L0031
	inc     _i16+1
;
; double_print_sender[4] = MSB(i16) | NT_UPD_HORZ;
;
	.dbg	line, "theLegend.c", 308
L0031:	lda     _i16+1
	ora     #$40
	sta     _double_print_sender+4
;
; double_print_sender[5] = LSB(i16);
;
	.dbg	line, "theLegend.c", 309
	lda     _i16
	sta     _double_print_sender+5
;
; ++j;
;
	.dbg	line, "theLegend.c", 310
	inc     _j
;
; double_print_sender[7] = castle_messages[i][j];
;
	.dbg	line, "theLegend.c", 311
	ldx     #$00
	lda     _i
	asl     a
	bcc     L008A
	inx
	clc
L008A:	adc     #<(_castle_messages)
	sta     ptr1
	txa
	adc     #>(_castle_messages)
	sta     ptr1+1
	ldy     #$01
	lda     (ptr1),y
	tax
	dey
	lda     (ptr1),y
	ldy     _j
	sta     ptr1
	stx     ptr1+1
	lda     (ptr1),y
	sta     _double_print_sender+7
;
; set_vram_update(double_print_sender);
;
	.dbg	line, "theLegend.c", 312
	lda     #<(_double_print_sender)
	ldx     #>(_double_print_sender)
	jsr     _set_vram_update
;
; i16-=22;
;
	.dbg	line, "theLegend.c", 313
	lda     _i16
	sec
	sbc     #$16
	sta     _i16
	bcs     L0033
	dec     _i16+1
;
; }else{
;
	.dbg	line, "theLegend.c", 314
	jmp     L0033
;
; std_print_sender[0] = MSB(i16) | NT_UPD_HORZ;
;
	.dbg	line, "theLegend.c", 315
L009F:	lda     _i16+1
	ora     #$40
	sta     _std_print_sender
;
; std_print_sender[1] = LSB(i16);
;
	.dbg	line, "theLegend.c", 316
	lda     _i16
	sta     _std_print_sender+1
;
; std_print_sender[3] = castle_messages[i][j];
;
	.dbg	line, "theLegend.c", 317
	ldx     #$00
	lda     _i
	asl     a
	bcc     L008B
	inx
	clc
L008B:	adc     #<(_castle_messages)
	sta     ptr1
	txa
	adc     #>(_castle_messages)
	sta     ptr1+1
	ldy     #$01
	lda     (ptr1),y
	tax
	dey
	lda     (ptr1),y
	ldy     _j
	sta     ptr1
	stx     ptr1+1
	lda     (ptr1),y
	sta     _std_print_sender+3
;
; set_vram_update(std_print_sender);
;
	.dbg	line, "theLegend.c", 318
	lda     #<(_std_print_sender)
	ldx     #>(_std_print_sender)
	jsr     _set_vram_update
;
; ++j;
;
	.dbg	line, "theLegend.c", 321
L0033:	inc     _j
;
; ++i16;
;
	.dbg	line, "theLegend.c", 322
	inc     _i16
	bne     L0035
	inc     _i16+1
;
; }else{
;
	.dbg	line, "theLegend.c", 327
	jmp     L0035
;
; delay(50);
;
	.dbg	line, "theLegend.c", 328
L0008:	lda     #$32
	jsr     _delay
;
; print(castle_last_message, NTADR_B(10,22));
;
	.dbg	line, "theLegend.c", 329
	lda     #<(_castle_last_message)
	ldx     #>(_castle_last_message)
	jsr     pushax
	ldx     #$26
	lda     #$CA
	jsr     _print
;
; delay(200);
;
	.dbg	line, "theLegend.c", 330
	lda     #$C8
	jsr     _delay
;
; fade_out(4);
;
	.dbg	line, "theLegend.c", 331
	lda     #$04
	jsr     _fade_out
;
; ppu_off();
;
	.dbg	line, "theLegend.c", 332
	jsr     _ppu_off
;
; castle_scene_complete = 1;
;
	.dbg	line, "theLegend.c", 333
	lda     #$01
	sta     _castle_scene_complete
;
; delay(20);
;
	.dbg	line, "theLegend.c", 334
	lda     #$14
	jsr     _delay
;
; while(!castle_scene_complete){
;
	.dbg	line, "theLegend.c", 257
L0035:	lda     _castle_scene_complete
	jeq     L0005
;
; set_scroll_y(0);
;
	.dbg	line, "theLegend.c", 338
	ldx     #$00
	txa
	jsr     _set_scroll_y
;
; map_to(ALLOK);
;
	.dbg	line, "theLegend.c", 339
	lda     #$00
	jsr     _map_to
;
; vram_adr(NAMETABLE_A);
;
	.dbg	line, "theLegend.c", 340
	ldx     #$20
	lda     #$00
	jsr     _vram_adr
;
; vram_unrle(allOk);
;
	.dbg	line, "theLegend.c", 341
	lda     #<(_allOk)
	ldx     #>(_allOk)
	jsr     _vram_unrle
;
; fix_text_color(NAMETABLE_A);
;
	.dbg	line, "theLegend.c", 343
	ldx     #$20
	lda     #$00
	jsr     _fix_text_color
;
; pal_bright(0);
;
	.dbg	line, "theLegend.c", 344
	lda     #$00
	jsr     _pal_bright
;
; set_irq_ptr(irq_buffer);
;
	.dbg	line, "theLegend.c", 345
	lda     #<(_irq_buffer)
	ldx     #>(_irq_buffer)
	jsr     _set_irq_ptr
;
; ppu_on_all();
;
	.dbg	line, "theLegend.c", 346
	jsr     _ppu_on_all
;
; famistudio_music_play_wrapper(1);
;
	.dbg	line, "theLegend.c", 347
	lda     #$01
	jsr     _famistudio_music_play_wrapper
;
; fade_in(5);
;
	.dbg	line, "theLegend.c", 349
	lda     #$05
	jsr     _fade_in
;
; print_a(mensaje1, 2, 20);
;
	.dbg	line, "theLegend.c", 351
	jsr     decsp3
	lda     #<(_mensaje1)
	ldy     #$01
	sta     (sp),y
	iny
	lda     #>(_mensaje1)
	sta     (sp),y
	tya
	ldy     #$00
	sta     (sp),y
	lda     #$14
	jsr     _print_a
;
; delay(45);
;
	.dbg	line, "theLegend.c", 352
	lda     #$2D
	jsr     _delay
;
; clear_4_lines_a(20);
;
	.dbg	line, "theLegend.c", 354
	lda     #$14
	jsr     _clear_4_lines_a
;
; print_a(mensaje2, 2, 20);
;
	.dbg	line, "theLegend.c", 355
	jsr     decsp3
	lda     #<(_mensaje2)
	ldy     #$01
	sta     (sp),y
	iny
	lda     #>(_mensaje2)
	sta     (sp),y
	tya
	ldy     #$00
	sta     (sp),y
	lda     #$14
	jsr     _print_a
;
; delay(100);
;
	.dbg	line, "theLegend.c", 356
	lda     #$64
	jsr     _delay
;
; clear_4_lines_a(20);
;
	.dbg	line, "theLegend.c", 359
	lda     #$14
	jsr     _clear_4_lines_a
;
; pal_fade_to(4, 8);
;
	.dbg	line, "theLegend.c", 360
	lda     #$04
	jsr     pusha
	lda     #$08
	jsr     _pal_fade_to
;
; map_to(ALLWRONG);
;
	.dbg	line, "theLegend.c", 361
	lda     #$08
	jsr     _map_to
;
; load_nametable_a_during_vblank(allWrong, 0x3C0);
;
	.dbg	line, "theLegend.c", 362
	lda     #<(_allWrong)
	ldx     #>(_allWrong)
	jsr     pushax
	ldx     #$03
	lda     #$C0
	jsr     _load_nametable_a_during_vblank
;
; pal_fade_to(8, 4);
;
	.dbg	line, "theLegend.c", 363
	lda     #$08
	jsr     pusha
	lda     #$04
	jsr     _pal_fade_to
;
; print_a(mensaje3, 5, 20);
;
	.dbg	line, "theLegend.c", 365
	jsr     decsp3
	lda     #<(_mensaje3)
	ldy     #$01
	sta     (sp),y
	iny
	lda     #>(_mensaje3)
	sta     (sp),y
	lda     #$05
	ldy     #$00
	sta     (sp),y
	lda     #$14
	jsr     _print_a
;
; delay(75);
;
	.dbg	line, "theLegend.c", 366
	lda     #$4B
	jsr     _delay
;
; fade_out(1);
;
	.dbg	line, "theLegend.c", 367
	lda     #$01
	jsr     _fade_out
;
; ppu_off();
;
	.dbg	line, "theLegend.c", 368
	jsr     _ppu_off
;
; palette[3] = 0x30;
;
	.dbg	line, "theLegend.c", 369
	lda     #$30
	sta     _palette+3
;
; pal_bg(palette);
;
	.dbg	line, "theLegend.c", 371
	lda     #<(_palette)
	ldx     #>(_palette)
	jsr     _pal_bg
;
; vram_adr(NAMETABLE_A);
;
	.dbg	line, "theLegend.c", 372
	ldx     #$20
	lda     #$00
	jsr     _vram_adr
;
; vram_fill(0xFF, 0x3C0);
;
	.dbg	line, "theLegend.c", 373
	lda     #$FF
	jsr     pusha
	ldx     #$03
	lda     #$C0
	jsr     _vram_fill
;
; ppu_on_all();
;
	.dbg	line, "theLegend.c", 374
	jsr     _ppu_on_all
;
; pal_bright(4);
;
	.dbg	line, "theLegend.c", 375
	lda     #$04
	jsr     _pal_bright
;
; change_std_scanline(20);
;
	.dbg	line, "theLegend.c", 376
	lda     #$14
	jsr     _change_std_scanline
;
; print_a(mensaje4, 0, 10);
;
	.dbg	line, "theLegend.c", 378
	jsr     decsp3
	lda     #<(_mensaje4)
	ldy     #$01
	sta     (sp),y
	iny
	lda     #>(_mensaje4)
	sta     (sp),y
	lda     #$00
	tay
	sta     (sp),y
	lda     #$0A
	jsr     _print_a
;
; delay(50);
;
	.dbg	line, "theLegend.c", 379
	lda     #$32
	jsr     _delay
;
; fade_out_white(15);
;
	.dbg	line, "theLegend.c", 380
	lda     #$0F
	jsr     _fade_out_white
;
; palette[1] = 0x07;
;
	.dbg	line, "theLegend.c", 383
	lda     #$07
	sta     _palette+1
;
; palette[2] = 0x17;
;
	.dbg	line, "theLegend.c", 384
	lda     #$17
	sta     _palette+2
;
; palette[3] = 0x27;
;
	.dbg	line, "theLegend.c", 385
	lda     #$27
	sta     _palette+3
;
; pal_bg(palette);
;
	.dbg	line, "theLegend.c", 386
	lda     #<(_palette)
	ldx     #>(_palette)
	jsr     _pal_bg
;
; map_to(DISASTER);
;
	.dbg	line, "theLegend.c", 387
	lda     #$0C
	jsr     _map_to
;
; load_nametable_a_during_vblank(disaster, 0x3C0);
;
	.dbg	line, "theLegend.c", 388
	lda     #<(_disaster)
	ldx     #>(_disaster)
	jsr     pushax
	ldx     #$03
	lda     #$C0
	jsr     _load_nametable_a_during_vblank
;
; ppu_wait_nmi();
;
	.dbg	line, "theLegend.c", 389
	jsr     _ppu_wait_nmi
;
; change_std_scanline(150);
;
	.dbg	line, "theLegend.c", 390
	lda     #$96
	jsr     _change_std_scanline
;
; fade_in_white(5);
;
	.dbg	line, "theLegend.c", 391
	lda     #$05
	jsr     _fade_in_white
;
; print_a(mensaje5, 7, 20);
;
	.dbg	line, "theLegend.c", 393
	jsr     decsp3
	lda     #<(_mensaje5)
	ldy     #$01
	sta     (sp),y
	iny
	lda     #>(_mensaje5)
	sta     (sp),y
	lda     #$07
	ldy     #$00
	sta     (sp),y
	lda     #$14
	jsr     _print_a
;
; delay(100);
;
	.dbg	line, "theLegend.c", 394
	lda     #$64
	jsr     _delay
;
; clear_4_lines_a(20);
;
	.dbg	line, "theLegend.c", 395
	lda     #$14
	jsr     _clear_4_lines_a
;
; print_a(mensaje6, 7, 20);
;
	.dbg	line, "theLegend.c", 396
	jsr     decsp3
	lda     #<(_mensaje6)
	ldy     #$01
	sta     (sp),y
	iny
	lda     #>(_mensaje6)
	sta     (sp),y
	lda     #$07
	ldy     #$00
	sta     (sp),y
	lda     #$14
	jsr     _print_a
;
; delay(125);
;
	.dbg	line, "theLegend.c", 397
	lda     #$7D
	jsr     _delay
;
; clear_4_lines_a(20);
;
	.dbg	line, "theLegend.c", 398
	lda     #$14
	jsr     _clear_4_lines_a
;
; print_a(mensaje7, 3, 20);
;
	.dbg	line, "theLegend.c", 399
	jsr     decsp3
	lda     #<(_mensaje7)
	ldy     #$01
	sta     (sp),y
	iny
	lda     #>(_mensaje7)
	sta     (sp),y
	lda     #$03
	ldy     #$00
	sta     (sp),y
	lda     #$14
	jsr     _print_a
;
; delay(175);
;
	.dbg	line, "theLegend.c", 400
	lda     #$AF
	jsr     _delay
;
; clear_4_lines_a(20);
;
	.dbg	line, "theLegend.c", 401
	lda     #$14
	jsr     _clear_4_lines_a
;
; print_a(mensaje8, 6, 20);
;
	.dbg	line, "theLegend.c", 402
	jsr     decsp3
	lda     #<(_mensaje8)
	ldy     #$01
	sta     (sp),y
	iny
	lda     #>(_mensaje8)
	sta     (sp),y
	lda     #$06
	ldy     #$00
	sta     (sp),y
	lda     #$14
	jsr     _print_a
;
; delay(50);
;
	.dbg	line, "theLegend.c", 403
	lda     #$32
	jsr     _delay
;
; fade_out(3);
;
	.dbg	line, "theLegend.c", 404
	lda     #$03
	jsr     _fade_out
;
; ppu_off();
;
	.dbg	line, "theLegend.c", 406
	jsr     _ppu_off
;
; map_to(DESERT);
;
	.dbg	line, "theLegend.c", 407
	lda     #$10
	jsr     _map_to
;
; vram_adr(NAMETABLE_A);
;
	.dbg	line, "theLegend.c", 408
	ldx     #$20
	lda     #$00
	jsr     _vram_adr
;
; vram_unrle(desert);
;
	.dbg	line, "theLegend.c", 409
	lda     #<(_desert)
	ldx     #>(_desert)
	jsr     _vram_unrle
;
; fix_text_color(NAMETABLE_A);
;
	.dbg	line, "theLegend.c", 410
	ldx     #$20
	lda     #$00
	jsr     _fix_text_color
;
; ppu_on_all();
;
	.dbg	line, "theLegend.c", 411
	jsr     _ppu_on_all
;
; fade_in(4);
;
	.dbg	line, "theLegend.c", 412
	lda     #$04
	jsr     _fade_in
;
; print_a(mensaje9, 1, 20);
;
	.dbg	line, "theLegend.c", 414
	jsr     decsp3
	lda     #<(_mensaje9)
	ldy     #$01
	sta     (sp),y
	iny
	lda     #>(_mensaje9)
	sta     (sp),y
	lda     #$01
	ldy     #$00
	sta     (sp),y
	lda     #$14
	jsr     _print_a
;
; delay(100);
;
	.dbg	line, "theLegend.c", 415
	lda     #$64
	jsr     _delay
;
; pal_fade_to(4,8);
;
	.dbg	line, "theLegend.c", 416
	lda     #$04
	jsr     pusha
	lda     #$08
	jsr     _pal_fade_to
;
; map_to(LIGHTINDESERT);
;
	.dbg	line, "theLegend.c", 418
	lda     #$14
	jsr     _map_to
;
; load_nametable_a_during_vblank(lightInDesert, 0x3C0);
;
	.dbg	line, "theLegend.c", 419
	lda     #<(_lightInDesert)
	ldx     #>(_lightInDesert)
	jsr     pushax
	ldx     #$03
	lda     #$C0
	jsr     _load_nametable_a_during_vblank
;
; pal_fade_to(8,4);
;
	.dbg	line, "theLegend.c", 420
	lda     #$08
	jsr     pusha
	lda     #$04
	jsr     _pal_fade_to
;
; print_a(mensaje10, 6, 20);
;
	.dbg	line, "theLegend.c", 422
	jsr     decsp3
	lda     #<(_mensaje10)
	ldy     #$01
	sta     (sp),y
	iny
	lda     #>(_mensaje10)
	sta     (sp),y
	lda     #$06
	ldy     #$00
	sta     (sp),y
	lda     #$14
	jsr     _print_a
;
; delay(50);
;
	.dbg	line, "theLegend.c", 423
	lda     #$32
	jsr     _delay
;
; fade_out(4);
;
	.dbg	line, "theLegend.c", 424
	lda     #$04
	jsr     _fade_out
;
; ppu_off();
;
	.dbg	line, "theLegend.c", 426
	jsr     _ppu_off
;
; map_to(THE3HEROES);
;
	.dbg	line, "theLegend.c", 427
	lda     #$18
	jsr     _map_to
;
; vram_adr(NAMETABLE_A);
;
	.dbg	line, "theLegend.c", 428
	ldx     #$20
	lda     #$00
	jsr     _vram_adr
;
; vram_write(the3Heroes, sizeof(the3Heroes) - 64);
;
	.dbg	line, "theLegend.c", 429
	lda     #<(_the3Heroes)
	ldx     #>(_the3Heroes)
	jsr     pushax
	ldx     #$03
	lda     #$C0
	jsr     _vram_write
;
; vram_write(the3Heroes_attr, sizeof(the3Heroes_attr));
;
	.dbg	line, "theLegend.c", 430
	lda     #<(_the3Heroes_attr)
	ldx     #>(_the3Heroes_attr)
	jsr     pushax
	ldx     #$00
	lda     #$28
	jsr     _vram_write
;
; fix_text_color(NAMETABLE_A);
;
	.dbg	line, "theLegend.c", 431
	ldx     #$20
	lda     #$00
	jsr     _fix_text_color
;
; ppu_on_all();
;
	.dbg	line, "theLegend.c", 432
	jsr     _ppu_on_all
;
; fade_in(4);
;
	.dbg	line, "theLegend.c", 433
	lda     #$04
	jsr     _fade_in
;
; print_a(mensaje11, 0, 20);
;
	.dbg	line, "theLegend.c", 434
	jsr     decsp3
	lda     #<(_mensaje11)
	ldy     #$01
	sta     (sp),y
	iny
	lda     #>(_mensaje11)
	sta     (sp),y
	lda     #$00
	tay
	sta     (sp),y
	lda     #$14
	jsr     _print_a
;
; delay(100);
;
	.dbg	line, "theLegend.c", 435
	lda     #$64
	jsr     _delay
;
; custom_fade_in(1,6);
;
	.dbg	line, "theLegend.c", 436
	lda     #$01
	jsr     pusha
	lda     #$06
	jsr     _custom_fade_in
;
; print_a(mensaje12, 9, 20);
;
	.dbg	line, "theLegend.c", 437
	jsr     decsp3
	lda     #<(_mensaje12)
	ldy     #$01
	sta     (sp),y
	iny
	lda     #>(_mensaje12)
	sta     (sp),y
	lda     #$09
	ldy     #$00
	sta     (sp),y
	lda     #$14
	jsr     _print_a
;
; delay(75);
;
	.dbg	line, "theLegend.c", 438
	lda     #$4B
	jsr     _delay
;
; custom_fade_in(2,6);
;
	.dbg	line, "theLegend.c", 439
	lda     #$02
	jsr     pusha
	lda     #$06
	jsr     _custom_fade_in
;
; print_a(mensaje13, 19, 20);
;
	.dbg	line, "theLegend.c", 440
	jsr     decsp3
	lda     #<(_mensaje13)
	ldy     #$01
	sta     (sp),y
	iny
	lda     #>(_mensaje13)
	sta     (sp),y
	lda     #$13
	ldy     #$00
	sta     (sp),y
	lda     #$14
	jsr     _print_a
;
; delay(100);
;
	.dbg	line, "theLegend.c", 441
	lda     #$64
	jsr     _delay
;
; fade_out(4);
;
	.dbg	line, "theLegend.c", 442
	lda     #$04
	jsr     _fade_out
;
; ppu_off();
;
	.dbg	line, "theLegend.c", 445
	jsr     _ppu_off
;
; for (i = 4; i<12; ++i){
;
	.dbg	line, "theLegend.c", 446
	lda     #$04
	sta     _i
L00A0:	lda     _i
	cmp     #$0C
	bcs     L0037
;
; palette[i] = 0x0f;
;
	.dbg	line, "theLegend.c", 447
	ldy     _i
	lda     #$0F
	sta     _palette,y
;
; for (i = 4; i<12; ++i){
;
	.dbg	line, "theLegend.c", 446
	inc     _i
	jmp     L00A0
;
; pal_bg(palette);
;
	.dbg	line, "theLegend.c", 449
L0037:	lda     #<(_palette)
	ldx     #>(_palette)
	jsr     _pal_bg
;
; map_to(SEALANGELHEAVEN);
;
	.dbg	line, "theLegend.c", 450
	lda     #$1C
	jsr     _map_to
;
; vram_adr(NAMETABLE_A);
;
	.dbg	line, "theLegend.c", 451
	ldx     #$20
	lda     #$00
	jsr     _vram_adr
;
; vram_unrle(sealAngelHeaven);
;
	.dbg	line, "theLegend.c", 452
	lda     #<(_sealAngelHeaven)
	ldx     #>(_sealAngelHeaven)
	jsr     _vram_unrle
;
; fix_text_color(NAMETABLE_A);
;
	.dbg	line, "theLegend.c", 453
	ldx     #$20
	lda     #$00
	jsr     _fix_text_color
;
; ppu_on_all();
;
	.dbg	line, "theLegend.c", 454
	jsr     _ppu_on_all
;
; fade_in(4);
;
	.dbg	line, "theLegend.c", 455
	lda     #$04
	jsr     _fade_in
;
; print_a(mensaje14, 0, 20);
;
	.dbg	line, "theLegend.c", 457
	jsr     decsp3
	lda     #<(_mensaje14)
	ldy     #$01
	sta     (sp),y
	iny
	lda     #>(_mensaje14)
	sta     (sp),y
	lda     #$00
	tay
	sta     (sp),y
	lda     #$14
	jsr     _print_a
;
; delay(75);
;
	.dbg	line, "theLegend.c", 458
	lda     #$4B
	jsr     _delay
;
; clear_4_lines_a(20);
;
	.dbg	line, "theLegend.c", 459
	lda     #$14
	jsr     _clear_4_lines_a
;
; print_a(mensaje15, 1, 20);
;
	.dbg	line, "theLegend.c", 460
	jsr     decsp3
	lda     #<(_mensaje15)
	ldy     #$01
	sta     (sp),y
	iny
	lda     #>(_mensaje15)
	sta     (sp),y
	lda     #$01
	ldy     #$00
	sta     (sp),y
	lda     #$14
	jsr     _print_a
;
; delay(175);
;
	.dbg	line, "theLegend.c", 461
	lda     #$AF
	jsr     _delay
;
; clear_4_lines_a(20);
;
	.dbg	line, "theLegend.c", 462
	lda     #$14
	jsr     _clear_4_lines_a
;
; print_a(mensaje16, 6, 20);
;
	.dbg	line, "theLegend.c", 463
	jsr     decsp3
	lda     #<(_mensaje16)
	ldy     #$01
	sta     (sp),y
	iny
	lda     #>(_mensaje16)
	sta     (sp),y
	lda     #$06
	ldy     #$00
	sta     (sp),y
	lda     #$14
	jsr     _print_a
;
; delay(100);
;
	.dbg	line, "theLegend.c", 464
	lda     #$64
	jsr     _delay
;
; clear_4_lines_a(20);
;
	.dbg	line, "theLegend.c", 465
	lda     #$14
	jsr     _clear_4_lines_a
;
; print_a(mensaje17, 6, 20);
;
	.dbg	line, "theLegend.c", 466
	jsr     decsp3
	lda     #<(_mensaje17)
	ldy     #$01
	sta     (sp),y
	iny
	lda     #>(_mensaje17)
	sta     (sp),y
	lda     #$06
	ldy     #$00
	sta     (sp),y
	lda     #$14
	jsr     _print_a
;
; delay(50);
;
	.dbg	line, "theLegend.c", 467
	lda     #$32
	jsr     _delay
;
; fade_out(4);
;
	.dbg	line, "theLegend.c", 468
	lda     #$04
	jsr     _fade_out
;
; ppu_off();
;
	.dbg	line, "theLegend.c", 469
	jsr     _ppu_off
;
; palette[1] = 0x07;
;
	.dbg	line, "theLegend.c", 470
	lda     #$07
	sta     _palette+1
;
; palette[2] = 0x17;
;
	.dbg	line, "theLegend.c", 471
	lda     #$17
	sta     _palette+2
;
; palette[3] = 0x27;
;
	.dbg	line, "theLegend.c", 472
	lda     #$27
	sta     _palette+3
;
; pal_bg(palette);
;
	.dbg	line, "theLegend.c", 473
	lda     #<(_palette)
	ldx     #>(_palette)
	jsr     _pal_bg
;
; pal_bright(0);
;
	.dbg	line, "theLegend.c", 474
	lda     #$00
	jsr     _pal_bright
;
; ppu_off();
;
	.dbg	line, "theLegend.c", 475
	jsr     _ppu_off
;
; delay(50);
;
	.dbg	line, "theLegend.c", 476
	lda     #$32
	jsr     _delay
;
; disable_irq();
;
	.dbg	line, "theLegend.c", 478
	jsr     _disable_irq
;
; map_to(ENDCASTLE);
;
	.dbg	line, "theLegend.c", 479
	lda     #$28
	jsr     _map_to
;
; vram_adr(NAMETABLE_A);
;
	.dbg	line, "theLegend.c", 480
	ldx     #$20
	lda     #$00
	jsr     _vram_adr
;
; vram_write(endCastleA, 1024);
;
	.dbg	line, "theLegend.c", 481
	lda     #<(_endCastleA)
	ldx     #>(_endCastleA)
	jsr     pushax
	ldx     #$04
	lda     #$00
	jsr     _vram_write
;
; vram_adr(NAMETABLE_B);
;
	.dbg	line, "theLegend.c", 482
	ldx     #$24
	lda     #$00
	jsr     _vram_adr
;
; vram_write(endCastleB, 1024);
;
	.dbg	line, "theLegend.c", 483
	lda     #<(_endCastleB)
	ldx     #>(_endCastleB)
	jsr     pushax
	ldx     #$04
	lda     #$00
	jsr     _vram_write
;
; vram_adr(NAMETABLE_B+0x3C0);
;
	.dbg	line, "theLegend.c", 486
	ldx     #$27
	lda     #$C0
	jsr     _vram_adr
;
; for (i = 0; i<16; ++i){
;
	.dbg	line, "theLegend.c", 487
	lda     #$00
	sta     _i
L00A1:	lda     _i
	cmp     #$10
	bcs     L003C
;
; vram_put(0xFF);
;
	.dbg	line, "theLegend.c", 488
	lda     #$FF
	jsr     _vram_put
;
; for (i = 0; i<16; ++i){
;
	.dbg	line, "theLegend.c", 487
	inc     _i
	jmp     L00A1
;
; set_irq_ptr(irq_buffer_end_castle);
;
	.dbg	line, "theLegend.c", 490
L003C:	lda     #<(_irq_buffer_end_castle)
	ldx     #>(_irq_buffer_end_castle)
	jsr     _set_irq_ptr
;
; pal_bright(0);
;
	.dbg	line, "theLegend.c", 491
	lda     #$00
	jsr     _pal_bright
;
; scy = 0;
;
	.dbg	line, "theLegend.c", 493
	lda     #$00
	sta     _scy
	sta     _scy+1
;
; scx = 0;
;
	.dbg	line, "theLegend.c", 494
	sta     _scx
;
; k=0;
;
	.dbg	line, "theLegend.c", 495
	sta     _k
;
; i=0xFF;
;
	.dbg	line, "theLegend.c", 496
	lda     #$FF
	sta     _i
;
; ppu_on_all();
;
	.dbg	line, "theLegend.c", 497
	jsr     _ppu_on_all
;
; fade_in(4);
;
	.dbg	line, "theLegend.c", 498
	lda     #$04
	jsr     _fade_in
;
; while(scy < 105){
;
	.dbg	line, "theLegend.c", 499
	jmp     L0052
;
; ppu_wait_nmi();
;
	.dbg	line, "theLegend.c", 500
L003F:	jsr     _ppu_wait_nmi
;
; set_vram_update(NULL);
;
	.dbg	line, "theLegend.c", 501
	ldx     #$00
	txa
	jsr     _set_vram_update
;
; ++k;
;
	.dbg	line, "theLegend.c", 502
	inc     _k
;
; if(k==4){
;
	.dbg	line, "theLegend.c", 503
	lda     _k
	cmp     #$04
	bne     L00A2
;
; k=0;
;
	.dbg	line, "theLegend.c", 504
	lda     #$00
	sta     _k
;
; scy = add_scroll_y(1, scy);
;
	.dbg	line, "theLegend.c", 505
	lda     #$01
	jsr     pusha
	lda     _scy
	ldx     _scy+1
	jsr     _add_scroll_y
	sta     _scy
	stx     _scy+1
;
; set_scroll_y(scy);
;
	.dbg	line, "theLegend.c", 506
	jsr     _set_scroll_y
;
; }else if (k%2==0){
;
	.dbg	line, "theLegend.c", 507
	jmp     L0052
L00A2:	lda     _k
	and     #$01
	jne     L0052
;
; if(end_castle_triggers[(u8)(i+1)] && scy>= end_castle_triggers[(u8)(i+1)]){
;
	.dbg	line, "theLegend.c", 508
	lda     _i
	clc
	adc     #$01
	sta     ptr1
	clc
	lda     #>(_end_castle_triggers)
	sta     ptr1+1
	ldy     #<(_end_castle_triggers)
	lda     (ptr1),y
	beq     L00A5
	lda     _scy
	ldx     _scy+1
	jsr     pushax
	lda     _i
	clc
	adc     #$01
	sta     ptr1
	clc
	lda     #>(_end_castle_triggers)
	sta     ptr1+1
	ldy     #<(_end_castle_triggers)
	lda     (ptr1),y
	jsr     tosicmp0
	bcc     L00A5
;
; ++i;
;
	.dbg	line, "theLegend.c", 509
	inc     _i
;
; j=0;
;
	.dbg	line, "theLegend.c", 510
	lda     #$00
	sta     _j
;
; l=0;
;
	.dbg	line, "theLegend.c", 511
	sta     _l
;
; clear_4_lines(NTADR_B(0,2));
;
	.dbg	line, "theLegend.c", 512
	ldx     #$24
	lda     #$40
	jsr     _clear_4_lines
;
; i16 = end_castle_messages_coordinates[i];
;
	.dbg	line, "theLegend.c", 513
	ldx     #$00
	lda     _i
	asl     a
	bcc     L008C
	inx
	clc
L008C:	adc     #<(_end_castle_messages_coordinates)
	sta     ptr1
	txa
	adc     #>(_end_castle_messages_coordinates)
	sta     ptr1+1
	ldy     #$01
	lda     (ptr1),y
	sta     _i16+1
	dey
	lda     (ptr1),y
	sta     _i16
;
; if (i!=0xFF && end_castle_messages_inscroll[i][j]){
;
	.dbg	line, "theLegend.c", 515
L00A5:	lda     _i
	cmp     #$FF
	jeq     L0052
	ldx     #$00
	lda     _i
	asl     a
	bcc     L008D
	inx
	clc
L008D:	adc     #<(_end_castle_messages_inscroll)
	sta     ptr1
	txa
	adc     #>(_end_castle_messages_inscroll)
	sta     ptr1+1
	ldy     #$01
	lda     (ptr1),y
	tax
	dey
	lda     (ptr1),y
	ldy     _j
	sta     ptr1
	stx     ptr1+1
	lda     (ptr1),y
	jeq     L0052
;
; if(end_castle_messages_inscroll[i][j]=='\n'){
;
	.dbg	line, "theLegend.c", 516
	ldx     #$00
	lda     _i
	asl     a
	bcc     L008E
	inx
	clc
L008E:	adc     #<(_end_castle_messages_inscroll)
	sta     ptr1
	txa
	adc     #>(_end_castle_messages_inscroll)
	sta     ptr1+1
	ldy     #$01
	lda     (ptr1),y
	tax
	dey
	lda     (ptr1),y
	ldy     _j
	sta     ptr1
	stx     ptr1+1
	lda     (ptr1),y
	cmp     #$0A
	bne     L00A8
;
; ++l;
;
	.dbg	line, "theLegend.c", 517
	inc     _l
;
; i16 = end_castle_messages_coordinates[i];
;
	.dbg	line, "theLegend.c", 518
	ldx     #$00
	lda     _i
	asl     a
	bcc     L008F
	inx
	clc
L008F:	adc     #<(_end_castle_messages_coordinates)
	sta     ptr1
	txa
	adc     #>(_end_castle_messages_coordinates)
	sta     ptr1+1
	ldy     #$01
	lda     (ptr1),y
	sta     _i16+1
	dey
	lda     (ptr1),y
	sta     _i16
;
; i16+=32*l;
;
	.dbg	line, "theLegend.c", 519
	ldx     #$00
	lda     _l
	jsr     shlax4
	stx     tmp1
	asl     a
	rol     tmp1
	clc
	adc     _i16
	sta     _i16
	lda     tmp1
	adc     _i16+1
	sta     _i16+1
;
; ++j;
;
	.dbg	line, "theLegend.c", 520
	inc     _j
;
; }else{
;
	.dbg	line, "theLegend.c", 521
	jmp     L0052
;
; std_print_sender[0] = MSB(i16) | NT_UPD_HORZ;
;
	.dbg	line, "theLegend.c", 522
L00A8:	lda     _i16+1
	ora     #$40
	sta     _std_print_sender
;
; std_print_sender[1] = LSB(i16);
;
	.dbg	line, "theLegend.c", 523
	lda     _i16
	sta     _std_print_sender+1
;
; std_print_sender[3] = end_castle_messages_inscroll[i][j];
;
	.dbg	line, "theLegend.c", 524
	ldx     #$00
	lda     _i
	asl     a
	bcc     L0090
	inx
	clc
L0090:	adc     #<(_end_castle_messages_inscroll)
	sta     ptr1
	txa
	adc     #>(_end_castle_messages_inscroll)
	sta     ptr1+1
	ldy     #$01
	lda     (ptr1),y
	tax
	dey
	lda     (ptr1),y
	ldy     _j
	sta     ptr1
	stx     ptr1+1
	lda     (ptr1),y
	sta     _std_print_sender+3
;
; set_vram_update(std_print_sender);
;
	.dbg	line, "theLegend.c", 525
	lda     #<(_std_print_sender)
	ldx     #>(_std_print_sender)
	jsr     _set_vram_update
;
; ++j;
;
	.dbg	line, "theLegend.c", 526
	inc     _j
;
; ++i16;
;
	.dbg	line, "theLegend.c", 527
	inc     _i16
	bne     L0052
	inc     _i16+1
;
; while(scy < 105){
;
	.dbg	line, "theLegend.c", 499
L0052:	lda     _scy+1
	cmp     #$00
	bne     L0042
	lda     _scy
	cmp     #$69
L0042:	jcc     L003F
;
; delay(128);
;
	.dbg	line, "theLegend.c", 533
	lda     #$80
	jsr     _delay
;
; set_vram_update(NULL);
;
	.dbg	line, "theLegend.c", 534
	ldx     #$00
	txa
	jsr     _set_vram_update
;
; clear_4_lines(NTADR_B(0,4));
;
	.dbg	line, "theLegend.c", 535
	ldx     #$24
	lda     #$80
	jsr     _clear_4_lines
;
; print(end_castle_message_1, NTADR_B(5,4));
;
	.dbg	line, "theLegend.c", 536
	lda     #<(_end_castle_message_1)
	ldx     #>(_end_castle_message_1)
	jsr     pushax
	ldx     #$24
	lda     #$85
	jsr     _print
;
; delay(128);
;
	.dbg	line, "theLegend.c", 537
	lda     #$80
	jsr     _delay
;
; ++i;
;
	.dbg	line, "theLegend.c", 538
	inc     _i
;
; j=0;
;
	.dbg	line, "theLegend.c", 539
	lda     #$00
	sta     _j
;
; l=0;
;
	.dbg	line, "theLegend.c", 540
	sta     _l
;
; clear_4_lines(NTADR_B(0,4));
;
	.dbg	line, "theLegend.c", 541
	ldx     #$24
	lda     #$80
	jsr     _clear_4_lines
;
; i16 = end_castle_messages_coordinates[i];
;
	.dbg	line, "theLegend.c", 542
	ldx     #$00
	lda     _i
	asl     a
	bcc     L0091
	inx
	clc
L0091:	adc     #<(_end_castle_messages_coordinates)
	sta     ptr1
	txa
	adc     #>(_end_castle_messages_coordinates)
	sta     ptr1+1
	ldy     #$01
	lda     (ptr1),y
	sta     _i16+1
	dey
	lda     (ptr1),y
	sta     _i16
;
; while (scx < 112){
;
	.dbg	line, "theLegend.c", 543
	jmp     L00AD
;
; ppu_wait_nmi();
;
	.dbg	line, "theLegend.c", 544
L0054:	jsr     _ppu_wait_nmi
;
; ++k;
;
	.dbg	line, "theLegend.c", 545
	inc     _k
;
; if(k==4){
;
	.dbg	line, "theLegend.c", 546
	lda     _k
	cmp     #$04
	bne     L00A9
;
; k=0;
;
	.dbg	line, "theLegend.c", 547
	lda     #$00
	sta     _k
;
; scx+=2;
;
	.dbg	line, "theLegend.c", 548
	lda     #$02
	clc
	adc     _scx
	sta     _scx
;
; set_scroll_x(scx);
;
	.dbg	line, "theLegend.c", 549
	ldx     #$00
	lda     _scx
	jsr     _set_scroll_x
;
; }else if(k<2){
;
	.dbg	line, "theLegend.c", 550
	jmp     L00AD
L00A9:	lda     _k
	cmp     #$02
	jcs     L00AD
;
; if (i!=0xFF && end_castle_messages_inscroll[i][j]){
;
	.dbg	line, "theLegend.c", 551
	lda     _i
	cmp     #$FF
	jeq     L00AD
	ldx     #$00
	lda     _i
	asl     a
	bcc     L0092
	inx
	clc
L0092:	adc     #<(_end_castle_messages_inscroll)
	sta     ptr1
	txa
	adc     #>(_end_castle_messages_inscroll)
	sta     ptr1+1
	ldy     #$01
	lda     (ptr1),y
	tax
	dey
	lda     (ptr1),y
	ldy     _j
	sta     ptr1
	stx     ptr1+1
	lda     (ptr1),y
	jeq     L00AD
;
; if(end_castle_messages_inscroll[i][j]=='\n'){
;
	.dbg	line, "theLegend.c", 552
	ldx     #$00
	lda     _i
	asl     a
	bcc     L0093
	inx
	clc
L0093:	adc     #<(_end_castle_messages_inscroll)
	sta     ptr1
	txa
	adc     #>(_end_castle_messages_inscroll)
	sta     ptr1+1
	ldy     #$01
	lda     (ptr1),y
	tax
	dey
	lda     (ptr1),y
	ldy     _j
	sta     ptr1
	stx     ptr1+1
	lda     (ptr1),y
	cmp     #$0A
	bne     L00AC
;
; ++l;
;
	.dbg	line, "theLegend.c", 553
	inc     _l
;
; i16 = end_castle_messages_coordinates[i];
;
	.dbg	line, "theLegend.c", 554
	ldx     #$00
	lda     _i
	asl     a
	bcc     L0094
	inx
	clc
L0094:	adc     #<(_end_castle_messages_coordinates)
	sta     ptr1
	txa
	adc     #>(_end_castle_messages_coordinates)
	sta     ptr1+1
	ldy     #$01
	lda     (ptr1),y
	sta     _i16+1
	dey
	lda     (ptr1),y
	sta     _i16
;
; i16+=32*l;
;
	.dbg	line, "theLegend.c", 555
	ldx     #$00
	lda     _l
	jsr     shlax4
	stx     tmp1
	asl     a
	rol     tmp1
	clc
	adc     _i16
	sta     _i16
	lda     tmp1
	adc     _i16+1
	sta     _i16+1
;
; ++j;
;
	.dbg	line, "theLegend.c", 556
	inc     _j
;
; }else{
;
	.dbg	line, "theLegend.c", 557
	jmp     L00AD
;
; std_print_sender[0] = MSB(i16) | NT_UPD_HORZ;
;
	.dbg	line, "theLegend.c", 558
L00AC:	lda     _i16+1
	ora     #$40
	sta     _std_print_sender
;
; std_print_sender[1] = LSB(i16);
;
	.dbg	line, "theLegend.c", 559
	lda     _i16
	sta     _std_print_sender+1
;
; std_print_sender[3] = end_castle_messages_inscroll[i][j];
;
	.dbg	line, "theLegend.c", 560
	ldx     #$00
	lda     _i
	asl     a
	bcc     L0095
	inx
	clc
L0095:	adc     #<(_end_castle_messages_inscroll)
	sta     ptr1
	txa
	adc     #>(_end_castle_messages_inscroll)
	sta     ptr1+1
	ldy     #$01
	lda     (ptr1),y
	tax
	dey
	lda     (ptr1),y
	ldy     _j
	sta     ptr1
	stx     ptr1+1
	lda     (ptr1),y
	sta     _std_print_sender+3
;
; set_vram_update(std_print_sender);
;
	.dbg	line, "theLegend.c", 561
	lda     #<(_std_print_sender)
	ldx     #>(_std_print_sender)
	jsr     _set_vram_update
;
; ++j;
;
	.dbg	line, "theLegend.c", 562
	inc     _j
;
; ++i16;
;
	.dbg	line, "theLegend.c", 563
	inc     _i16
	bne     L00AD
	inc     _i16+1
;
; while (scx < 112){
;
	.dbg	line, "theLegend.c", 543
L00AD:	lda     _scx
	cmp     #$70
	jcc     L0054
;
; set_vram_update(NULL);
;
	.dbg	line, "theLegend.c", 568
	ldx     #$00
	txa
	jsr     _set_vram_update
;
; print(end_castle_message_fragment, NTADR_B(25,6));
;
	.dbg	line, "theLegend.c", 569
	lda     #<(_end_castle_message_fragment)
	ldx     #>(_end_castle_message_fragment)
	jsr     pushax
	ldx     #$24
	lda     #$D9
	jsr     _print
;
; delay(128);
;
	.dbg	line, "theLegend.c", 570
	lda     #$80
	jsr     _delay
;
; clear_4_lines(NTADR_B(0,4));
;
	.dbg	line, "theLegend.c", 571
	ldx     #$24
	lda     #$80
	jsr     _clear_4_lines
;
; print(end_castle_message_2, NTADR_B(0,4));
;
	.dbg	line, "theLegend.c", 572
	lda     #<(_end_castle_message_2)
	ldx     #>(_end_castle_message_2)
	jsr     pushax
	ldx     #$24
	lda     #$80
	jsr     _print
;
; delay(128);
;
	.dbg	line, "theLegend.c", 573
	lda     #$80
	jsr     _delay
;
; fade_out(4);
;
	.dbg	line, "theLegend.c", 574
	lda     #$04
	jsr     _fade_out
;
; ppu_off();
;
	.dbg	line, "theLegend.c", 575
	jsr     _ppu_off
;
; scx = 0;
;
	.dbg	line, "theLegend.c", 576
	lda     #$00
	sta     _scx
;
; scy = 0;
;
	.dbg	line, "theLegend.c", 577
	tax
	sta     _scy
	sta     _scy+1
;
; set_scroll_x(scx);
;
	.dbg	line, "theLegend.c", 578
	lda     _scx
	jsr     _set_scroll_x
;
; set_scroll_y(scy);
;
	.dbg	line, "theLegend.c", 579
	lda     _scy
	ldx     _scy+1
	jsr     _set_scroll_y
;
; vram_adr(NAMETABLE_B);
;
	.dbg	line, "theLegend.c", 580
	ldx     #$24
	lda     #$00
	jsr     _vram_adr
;
; vram_fill(0xFF, 0x3C0); // Clear nametable B
;
	.dbg	line, "theLegend.c", 581
	lda     #$FF
	jsr     pusha
	ldx     #$03
	lda     #$C0
	jsr     _vram_fill
;
; vram_adr(NAMETABLE_A);
;
	.dbg	line, "theLegend.c", 584
	ldx     #$20
	lda     #$00
	jsr     _vram_adr
;
; vram_unrle(deltaruneLogo);
;
	.dbg	line, "theLegend.c", 585
	lda     #<(_deltaruneLogo)
	ldx     #>(_deltaruneLogo)
	jsr     _vram_unrle
;
; palette[1] = 0x16;
;
	.dbg	line, "theLegend.c", 586
	lda     #$16
	sta     _palette+1
;
; palette[2] = 0x10;
;
	.dbg	line, "theLegend.c", 587
	lda     #$10
	sta     _palette+2
;
; palette[3] = 0x30;
;
	.dbg	line, "theLegend.c", 588
	lda     #$30
	sta     _palette+3
;
; pal_bg(palette);
;
	.dbg	line, "theLegend.c", 589
	lda     #<(_palette)
	ldx     #>(_palette)
	jsr     _pal_bg
;
; disable_irq();
;
	.dbg	line, "theLegend.c", 590
	jsr     _disable_irq
;
; set_chr_mode_0(4);
;
	.dbg	line, "theLegend.c", 591
	lda     #$04
	jsr     _set_chr_mode_0
;
; set_chr_mode_1(5);
;
	.dbg	line, "theLegend.c", 592
	lda     #$05
	jsr     _set_chr_mode_1
;
; set_chr_mode_2(6);
;
	.dbg	line, "theLegend.c", 593
	lda     #$06
	jsr     _set_chr_mode_2
;
; set_chr_mode_3(7);
;
	.dbg	line, "theLegend.c", 594
	lda     #$07
	jsr     _set_chr_mode_3
;
; delay(100);
;
	.dbg	line, "theLegend.c", 595
	lda     #$64
	jsr     _delay
;
; ppu_on_all();
;
	.dbg	line, "theLegend.c", 596
	jsr     _ppu_on_all
;
; fade_in(4);
;
	.dbg	line, "theLegend.c", 597
	lda     #$04
	jsr     _fade_in
;
; j=1;
;
	.dbg	line, "theLegend.c", 598
	lda     #$01
	sta     _j
;
; pad = 0;
;
	.dbg	line, "theLegend.c", 599
	lda     #$00
	sta     _pad
;
; while(j){
;
	.dbg	line, "theLegend.c", 600
	jmp     L0064
;
; ppu_wait_nmi();
;
	.dbg	line, "theLegend.c", 601
L0061:	jsr     _ppu_wait_nmi
;
; pad = pad_poll(0);
;
	.dbg	line, "theLegend.c", 602
	lda     #$00
	jsr     _pad_poll
	sta     _pad
;
; if(pad & (PAD_A | PAD_START)){
;
	.dbg	line, "theLegend.c", 603
	and     #$90
	beq     L0064
;
; j=0;
;
	.dbg	line, "theLegend.c", 604
	lda     #$00
	sta     _j
;
; while(j){
;
	.dbg	line, "theLegend.c", 600
L0064:	lda     _j
	bne     L0061
;
; fade_out(4);
;
	.dbg	line, "theLegend.c", 607
	lda     #$04
	jsr     _fade_out
;
; ppu_off();
;
	.dbg	line, "theLegend.c", 608
	jsr     _ppu_off
;
; palette[1] = 0x07;
;
	.dbg	line, "theLegend.c", 609
	lda     #$07
	sta     _palette+1
;
; palette[2] = 0x17;
;
	.dbg	line, "theLegend.c", 610
	lda     #$17
	sta     _palette+2
;
; palette[3] = 0x27;
;
	.dbg	line, "theLegend.c", 611
	lda     #$27
	sta     _palette+3
;
; pal_bg(palette);
;
	.dbg	line, "theLegend.c", 612
	lda     #<(_palette)
	ldx     #>(_palette)
	jsr     _pal_bg
;
; while (1){ 
;
	.dbg	line, "theLegend.c", 235
	jmp     L0002

	.dbg	line
.endproc

